(lp0
ccopy_reg
_reconstructor
p1
(cmatplotlib.lines
Line2D
p2
c__builtin__
object
p3
Ntp4
Rp5
(dp6
S'_label'
p7
V_line0
p8
sS'_visible'
p9
I01
sS'_solidcapstyle'
p10
Vprojecting
p11
sS'figure'
p12
g1
(cmatplotlib.figure
Figure
p13
g3
Ntp14
Rp15
(dp16
g7
V
p17
sg9
I01
sg12
NsS'stale_callback'
p18
NsS'_rasterized'
p19
NsS'texts'
p20
(lp21
sS'_hold'
p22
I01
sS'artists'
p23
(lp24
sS'_path_effects'
p25
(lp26
sS'frameon'
p27
I01
sS'_clipon'
p28
I01
sV__mpl_version__
p29
S'1.5.0'
p30
sS'_clippath'
p31
NsS'_contains'
p32
NsS'_tight_parameters'
p33
(dp34
sS'_mouseover'
p35
I00
sS'_animated'
p36
I00
sS'_propobservers'
p37
(dp38
sS'eventson'
p39
I00
sS'_picker'
p40
NsS'_remove_method'
p41
NsS'figurePatch'
p42
g1
(cmatplotlib.patches
Rectangle
p43
g3
Ntp44
Rp45
(dp46
g7
g17
sS'_width'
p47
F1.0
sS'_fill'
p48
I01
sg12
g15
sg9
I01
sg18
NsS'_agg_filter'
p49
Nsg25
g26
sS'_gid'
p50
Nsg28
I01
sS'_combined_transform'
p51
g1
(cmatplotlib.transforms
IdentityTransform
p52
g3
Ntp53
Rp54
(dp55
S'_invalid'
p56
I1
sS'_inverted'
p57
NsS'_shorthand_name'
p58
g17
sS'_parents'
p59
(dp60
sbsS'_edgecolor'
p61
(F1.0
F1.0
F1.0
F1.0
tp62
sg31
NsS'_y'
p63
F0.0
sS'_x'
p64
F0.0
sS'_sketch'
p65
Nsg32
Nsg19
Nsg35
I00
sg36
I00
sg37
(dp66
sS'_rect_transform'
p67
g1
(g52
g3
Ntp68
Rp69
(dp70
g56
I1
sg57
Nsg58
g17
sg59
(dp71
sbsg39
I00
sS'_hatch'
p72
NsS'_stale'
p73
I01
sS'_linewidth'
p74
F0.0
sS'clipbox'
p75
NsS'_height'
p76
F1.0
sg40
NsS'_antialiased'
p77
I00
sS'_original_facecolor'
p78
V0.75
p79
sS'_snap'
p80
NsS'_facecolor'
p81
(F0.75
F0.75
F0.75
F1.0
tp82
sS'_joinstyle'
p83
Vmiter
p84
sS'_linestyle'
p85
Vsolid
p86
sS'_original_edgecolor'
p87
Vw
p88
sS'_oid'
p89
I0
sS'_transformSet'
p90
I01
sS'_angle'
p91
F0.0
sS'_alpha'
p92
NsS'_transform'
p93
g1
(cmatplotlib.transforms
BboxTransformTo
p94
g3
Ntp95
Rp96
(dp97
g56
I1
sS'_mtx'
p98
Nsg57
NsS'_boxout'
p99
g1
(cmatplotlib.transforms
TransformedBbox
p100
g3
Ntp101
Rp102
(dp103
g56
I0
sS'_bbox'
p104
g1
(cmatplotlib.transforms
Bbox
p105
g3
Ntp106
Rp107
(dp108
g56
I0
sS'_minpos'
p109
cnumpy.core.multiarray
_reconstruct
p110
(cnumpy
ndarray
p111
(I0
tp112
S'b'
p113
tp114
Rp115
(I1
(L2L
tp116
cnumpy
dtype
p117
(S'f8'
p118
I0
I1
tp119
Rp120
(I3
S'<'
p121
NNNI-1
I-1
I0
tp122
bI00
S'H\xaf\xbc\x9a\xf2\xd7z>H\xaf\xbc\x9a\xf2\xd7z>'
p123
tp124
bsg59
(dp125
L48762664L
g102
ssS'_points_orig'
p126
g110
(g111
(I0
tp127
g113
tp128
Rp129
(I1
(L2L
L2L
tp130
g120
I00
S'\x00\x00\x00\x00\x00\x00\x00\x00\x00\x00\x00\x00\x00\x00\x00\x00\x00\x00\x00\x00\x00\x00 @\x00\x00\x00\x00\x00\x00\x18@'
p131
tp132
bsS'_points'
p133
g110
(g111
(I0
tp134
g113
tp135
Rp136
(I1
(L2L
L2L
tp137
g120
I00
S'\x00\x00\x00\x00\x00\x00\x00\x00\x00\x00\x00\x00\x00\x00\x00\x00\x00\x00\x00\x00\x00\x00 @\x00\x00\x00\x00\x00\x00\x18@'
p138
tp139
bsS'_ignore'
p140
I01
sg58
g17
sbsg93
g1
(cmatplotlib.transforms
Affine2D
p141
g3
Ntp142
Rp143
(dp144
g56
I0
sg57
Nsg98
g110
(g111
(I0
tp145
g113
tp146
Rp147
(I1
(L3L
L3L
tp148
g120
I00
S'\x00\x00\x00\x00\x00\x00T@\x00\x00\x00\x00\x00\x00\x00\x00\x00\x00\x00\x00\x00\x00\x00\x00\x00\x00\x00\x00\x00\x00\x00\x00\x00\x00\x00\x00\x00\x00T@\x00\x00\x00\x00\x00\x00\x00\x00\x00\x00\x00\x00\x00\x00\x00\x00\x00\x00\x00\x00\x00\x00\x00\x00\x00\x00\x00\x00\x00\x00\xf0?'
p149
tp150
bsg58
g17
sg59
(dp151
L136960768L
g1
(cmatplotlib.transforms
ScaledTranslation
p152
g3
Ntp153
Rp154
(dp155
g56
I1
sg98
NsS'_scale_trans'
p156
g143
sg57
NsS'_t'
p157
(I0
F-0.05555555555555555
tp158
sg58
g17
sg59
(dp159
L136960712L
g1
(cmatplotlib.transforms
CompositeGenericTransform
p160
g3
Ntp161
Rp162
(dp163
g56
I2
sS'input_dims'
p164
I2
sS'_a'
p165
g1
(cmatplotlib.transforms
BlendedGenericTransform
p166
g3
Ntp167
Rp168
(dp169
g56
I2
sg63
g1
(g94
g3
Ntp170
Rp171
(dp172
g56
I1
sg98
Nsg57
Nsg99
g1
(g100
g3
Ntp173
Rp174
(dp175
g56
I1
sg104
g1
(g105
g3
Ntp176
Rp177
(dp178
g56
I0
sg109
g110
(g111
(I0
tp179
g113
tp180
Rp181
(I1
(L2L
tp182
g120
I00
S'H\xaf\xbc\x9a\xf2\xd7z>H\xaf\xbc\x9a\xf2\xd7z>'
p183
tp184
bsg59
(dp185
L136415328L
g174
ssg126
g110
(g111
(I0
tp186
g113
tp187
Rp188
(I1
(L2L
L2L
tp189
g120
I00
S'\x00\x00\x00\x00\x00\x00\xc0?\x98\x99\x99\x99\x99\x99\xb9?\xcd\xcc\xcc\xcc\xcc\xcc\xec?\xcd\xcc\xcc\xcc\xcc\xcc\xec?'
p190
tp191
bsg133
g110
(g111
(I0
tp192
g113
tp193
Rp194
(I1
(L2L
L2L
tp195
g120
I00
S'\x00\x00\x00\x00\x00\x00\xc0?\x98\x99\x99\x99\x99\x99\xb9?\xcd\xcc\xcc\xcc\xcc\xcc\xec?\xcd\xcc\xcc\xcc\xcc\xcc\xec?'
p196
tp197
bsg140
I01
sg58
g17
sbsg93
g96
sg133
Nsg59
(dp198
L136415664L
g171
ssg58
g17
sbsg59
(dp199
L136559360L
g1
(cmatplotlib.transforms
BlendedAffine2D
p200
g3
Ntp201
Rp202
(dp203
g56
I1
sg98
Nsg63
g171
sg64
g1
(g52
g3
Ntp204
Rp205
(dp206
g56
I1
sg57
Nsg58
g17
sg59
(dp207
L136559360L
g202
ssbsg57
Nsg58
g17
sg59
(dp208
sbsL137114624L
g1
(g160
g3
Ntp209
Rp210
(dp211
g56
I1
sg164
I2
sg165
g1
(g160
g3
Ntp212
Rp213
(dp214
g56
I1
sg164
I2
sg165
g1
(g94
g3
Ntp215
Rp216
(dp217
g56
I1
sg98
Nsg57
Nsg99
g1
(g105
g3
Ntp218
Rp219
(dp220
g56
I1
sg109
g110
(g111
(I0
tp221
g113
tp222
Rp223
(I1
(L2L
tp224
g120
I00
S'H\xaf\xbc\x9a\xf2\xd7z>H\xaf\xbc\x9a\xf2\xd7z>'
p225
tp226
bsg59
(dp227
L137114456L
g216
ssg126
g110
(g111
(I0
tp228
g113
tp229
Rp230
(I1
(L2L
L2L
tp231
g120
I00
S'\x00\x00\x00\x00\x00\x00\x00\x00\x00\x00\x00\x00\x00\x00\x00\x00\x00\x00\x00\x00\x00\x00\xf0?\x00\x00\x00\x00\x00\x00\xf0?'
p232
tp233
bsg133
g110
(g111
(I0
tp234
g113
tp235
Rp236
(I1
(L2L
L2L
tp237
g120
I00
S'\x00\x00\x00\x00\x00\x00\x00\x00\x00\x00\x00\x00\x00\x00\x00\x00\x00\x00\x00\x00\x00\x00\xf0?\x00\x00\x00\x00\x00\x00\xf0?'
p238
tp239
bsg140
I01
sg58
g17
sbsg59
(dp240
L137114568L
g213
ssg58
g17
sbsS'output_dims'
p241
I2
sS'_b'
p242
g1
(g141
g3
Ntp243
Rp244
(dp245
g56
I2
sg57
Nsg98
g110
(g111
(I0
tp246
g113
tp247
Rp248
(I1
(L3L
L3L
tp249
g120
I00
S'\x00\x00\x00\x00\x00\x00\xf0?\x00\x00\x00\x00\x00\x00\x00\x00\x00\x00\x00\x00\x00\x00\x00\x00\x00\x00\x00\x00\x00\x00\x00\x00\x00\x00\x00\x00\x00\x00\xf0?\x00\x00\x00\x00\x00\x00\x00\x00\x00\x00\x00\x00\x00\x00\x00\x00\x00\x00\x00\x00\x00\x00\x00\x00\x00\x00\x00\x00\x00\x00\xf0?'
p250
tp251
bsg58
g17
sg59
(dp252
L137114568L
g213
ssbsg59
(dp253
L137114624L
g210
ssg58
g17
sbsg241
I2
sg242
g171
sg59
(dp254
L137114736L
g1
(g100
g3
Ntp255
Rp256
(dp257
g56
I1
sg104
g1
(g105
g3
Ntp258
Rp259
(dp260
g56
I1
sg109
g110
(g111
(I0
tp261
g113
tp262
Rp263
(I1
(L2L
tp264
g120
I00
S'H\xaf\xbc\x9a\xf2\xd7z>H\xaf\xbc\x9a\xf2\xd7z>'
p265
tp266
bsg59
(dp267
L137114736L
g256
ssg126
g110
(g111
(I0
tp268
g113
tp269
Rp270
(I1
(L2L
L2L
tp271
g120
I00
S'\x00\x00\x00\x00\x00\x00\x00\x00\x00\x00\x00\x00\x00\x00\x00\x00\x00\x00\x00\x00\x00\x00\xf0?\x00\x00\x00\x00\x00\x00\xf0?'
p272
tp273
bsg133
g110
(g111
(I0
tp274
g113
tp275
Rp276
(I1
(L2L
L2L
tp277
g120
I00
S'\x00\x00\x00\x00\x00\x00\x00\x00\x00\x00\x00\x00\x00\x00\x00\x00\x00\x00\x00\x00\x00\x00\xf0?\x00\x00\x00\x00\x00\x00\xf0?'
p278
tp279
bsg140
I01
sg58
g17
sbsg93
g210
sg133
Nsg59
(dp280
sg58
g17
sbssg58
g17
sbsL136480136L
g1
(g200
g3
Ntp281
Rp282
(dp283
g56
I1
sg98
Nsg63
g1
(g52
g3
Ntp284
Rp285
(dp286
g56
I1
sg57
Nsg58
g17
sg59
(dp287
L136480136L
g282
ssbsg64
g171
sg57
Nsg58
g17
sg59
(dp288
sbsL137179264L
g1
(g160
g3
Ntp289
Rp290
(dp291
g56
I1
sg164
I2
sg165
g1
(g160
g3
Ntp292
Rp293
(dp294
g56
I1
sg164
I2
sg165
g1
(g94
g3
Ntp295
Rp296
(dp297
g56
I1
sg98
Nsg57
Nsg99
g1
(g105
g3
Ntp298
Rp299
(dp300
g56
I1
sg109
g110
(g111
(I0
tp301
g113
tp302
Rp303
(I1
(L2L
tp304
g120
I00
S'H\xaf\xbc\x9a\xf2\xd7z>H\xaf\xbc\x9a\xf2\xd7z>'
p305
tp306
bsg59
(dp307
L137117592L
g296
ssg126
g110
(g111
(I0
tp308
g113
tp309
Rp310
(I1
(L2L
L2L
tp311
g120
I00
S'\x00\x00\x00\x00\x00\x00\x00\x00\x00\x00\x00\x00\x00\x00\x00\x00\x00\x00\x00\x00\x00\x00\xf0?\x00\x00\x00\x00\x00\x00\xf0?'
p312
tp313
bsg133
g110
(g111
(I0
tp314
g113
tp315
Rp316
(I1
(L2L
L2L
tp317
g120
I00
S'\x00\x00\x00\x00\x00\x00\x00\x00\x00\x00\x00\x00\x00\x00\x00\x00\x00\x00\x00\x00\x00\x00\xf0?\x00\x00\x00\x00\x00\x00\xf0?'
p318
tp319
bsg140
I01
sg58
g17
sbsg59
(dp320
L137179208L
g293
ssg58
g17
sbsg241
I2
sg242
g1
(g141
g3
Ntp321
Rp322
(dp323
g56
I2
sg57
Nsg98
g110
(g111
(I0
tp324
g113
tp325
Rp326
(I1
(L3L
L3L
tp327
g120
I00
S'\x00\x00\x00\x00\x00\x00\xf0?\x00\x00\x00\x00\x00\x00\x00\x00\x00\x00\x00\x00\x00\x00\x00\x00\x00\x00\x00\x00\x00\x00\x00\x00\x00\x00\x00\x00\x00\x00\xf0?\x00\x00\x00\x00\x00\x00\x00\x00\x00\x00\x00\x00\x00\x00\x00\x00\x00\x00\x00\x00\x00\x00\x00\x00\x00\x00\x00\x00\x00\x00\xf0?'
p328
tp329
bsg58
g17
sg59
(dp330
L137179208L
g293
ssbsg59
(dp331
L137179264L
g290
ssg58
g17
sbsg241
I2
sg242
g171
sg59
(dp332
L137179376L
g1
(g100
g3
Ntp333
Rp334
(dp335
g56
I1
sg104
g1
(g105
g3
Ntp336
Rp337
(dp338
g56
I1
sg109
g110
(g111
(I0
tp339
g113
tp340
Rp341
(I1
(L2L
tp342
g120
I00
S'H\xaf\xbc\x9a\xf2\xd7z>H\xaf\xbc\x9a\xf2\xd7z>'
p343
tp344
bsg59
(dp345
L137179376L
g334
ssg126
g110
(g111
(I0
tp346
g113
tp347
Rp348
(I1
(L2L
L2L
tp349
g120
I00
S'\x00\x00\x00\x00\x00\x00\x00\x00\x00\x00\x00\x00\x00\x00\x00\x00\x00\x00\x00\x00\x00\x00\xf0?\x00\x00\x00\x00\x00\x00\xf0?'
p350
tp351
bsg133
g110
(g111
(I0
tp352
g113
tp353
Rp354
(I1
(L2L
L2L
tp355
g120
I00
S'\x00\x00\x00\x00\x00\x00\x00\x00\x00\x00\x00\x00\x00\x00\x00\x00\x00\x00\x00\x00\x00\x00\xf0?\x00\x00\x00\x00\x00\x00\xf0?'
p356
tp357
bsg140
I01
sg58
g17
sbsg93
g290
sg133
Nsg59
(dp358
sg58
g17
sbssg58
g17
sbsL137180048L
g1
(g160
g3
Ntp359
Rp360
(dp361
g56
I1
sg164
I2
sg165
g1
(g160
g3
Ntp362
Rp363
(dp364
g56
I1
sg164
I2
sg165
g1
(g94
g3
Ntp365
Rp366
(dp367
g56
I1
sg98
Nsg57
Nsg99
g1
(g105
g3
Ntp368
Rp369
(dp370
g56
I1
sg109
g110
(g111
(I0
tp371
g113
tp372
Rp373
(I1
(L2L
tp374
g120
I00
S'H\xaf\xbc\x9a\xf2\xd7z>H\xaf\xbc\x9a\xf2\xd7z>'
p375
tp376
bsg59
(dp377
L137179880L
g366
ssg126
g110
(g111
(I0
tp378
g113
tp379
Rp380
(I1
(L2L
L2L
tp381
g120
I00
S'\x00\x00\x00\x00\x00\x00\x00\x00\x00\x00\x00\x00\x00\x00\x00\x00\x00\x00\x00\x00\x00\x00\xf0?\x00\x00\x00\x00\x00\x00\xf0?'
p382
tp383
bsg133
g110
(g111
(I0
tp384
g113
tp385
Rp386
(I1
(L2L
L2L
tp387
g120
I00
S'\x00\x00\x00\x00\x00\x00\x00\x00\x00\x00\x00\x00\x00\x00\x00\x00\x00\x00\x00\x00\x00\x00\xf0?\x00\x00\x00\x00\x00\x00\xf0?'
p388
tp389
bsg140
I01
sg58
g17
sbsg59
(dp390
L137179992L
g363
ssg58
g17
sbsg241
I2
sg242
g1
(g141
g3
Ntp391
Rp392
(dp393
g56
I2
sg57
Nsg98
g110
(g111
(I0
tp394
g113
tp395
Rp396
(I1
(L3L
L3L
tp397
g120
I00
S'\x00\x00\x00\x00\x00\x00\xf0?\x00\x00\x00\x00\x00\x00\x00\x00\x00\x00\x00\x00\x00\x00\x00\x00\x00\x00\x00\x00\x00\x00\x00\x00\x00\x00\x00\x00\x00\x00\xf0?\x00\x00\x00\x00\x00\x00\x00\x00\x00\x00\x00\x00\x00\x00\x00\x00\x00\x00\x00\x00\x00\x00\x00\x00\x00\x00\x00\x00\x00\x00\xf0?'
p398
tp399
bsg58
g17
sg59
(dp400
L137179992L
g363
ssbsg59
(dp401
L137180048L
g360
ssg58
g17
sbsg241
I2
sg242
g171
sg59
(dp402
L137180160L
g1
(g100
g3
Ntp403
Rp404
(dp405
g56
I1
sg104
g1
(g105
g3
Ntp406
Rp407
(dp408
g56
I1
sg109
g110
(g111
(I0
tp409
g113
tp410
Rp411
(I1
(L2L
tp412
g120
I00
S'H\xaf\xbc\x9a\xf2\xd7z>H\xaf\xbc\x9a\xf2\xd7z>'
p413
tp414
bsg59
(dp415
L137180160L
g404
ssg126
g110
(g111
(I0
tp416
g113
tp417
Rp418
(I1
(L2L
L2L
tp419
g120
I00
S'\x00\x00\x00\x00\x00\x00\x00\x00\x00\x00\x00\x00\x00\x00\x00\x00\x00\x00\x00\x00\x00\x00\xf0?\x00\x00\x00\x00\x00\x00\xf0?'
p420
tp421
bsg133
g110
(g111
(I0
tp422
g113
tp423
Rp424
(I1
(L2L
L2L
tp425
g120
I00
S'\x00\x00\x00\x00\x00\x00\x00\x00\x00\x00\x00\x00\x00\x00\x00\x00\x00\x00\x00\x00\x00\x00\xf0?\x00\x00\x00\x00\x00\x00\xf0?'
p426
tp427
bsg140
I01
sg58
g17
sbsg93
g360
sg133
Nsg59
(dp428
sg58
g17
sbssg58
g17
sbsL137116192L
g1
(g160
g3
Ntp429
Rp430
(dp431
g56
I1
sg164
I2
sg165
g1
(g160
g3
Ntp432
Rp433
(dp434
g56
I1
sg164
I2
sg165
g1
(g94
g3
Ntp435
Rp436
(dp437
g56
I1
sg98
Nsg57
Nsg99
g1
(g105
g3
Ntp438
Rp439
(dp440
g56
I1
sg109
g110
(g111
(I0
tp441
g113
tp442
Rp443
(I1
(L2L
tp444
g120
I00
S'H\xaf\xbc\x9a\xf2\xd7z>H\xaf\xbc\x9a\xf2\xd7z>'
p445
tp446
bsg59
(dp447
L137116024L
g436
ssg126
g110
(g111
(I0
tp448
g113
tp449
Rp450
(I1
(L2L
L2L
tp451
g120
I00
S'\x00\x00\x00\x00\x00\x00\x00\x00\x00\x00\x00\x00\x00\x00\x00\x00\x00\x00\x00\x00\x00\x00\xf0?\x00\x00\x00\x00\x00\x00\xf0?'
p452
tp453
bsg133
g110
(g111
(I0
tp454
g113
tp455
Rp456
(I1
(L2L
L2L
tp457
g120
I00
S'\x00\x00\x00\x00\x00\x00\x00\x00\x00\x00\x00\x00\x00\x00\x00\x00\x00\x00\x00\x00\x00\x00\xf0?\x00\x00\x00\x00\x00\x00\xf0?'
p458
tp459
bsg140
I01
sg58
g17
sbsg59
(dp460
L137116136L
g433
ssg58
g17
sbsg241
I2
sg242
g1
(g141
g3
Ntp461
Rp462
(dp463
g56
I2
sg57
Nsg98
g110
(g111
(I0
tp464
g113
tp465
Rp466
(I1
(L3L
L3L
tp467
g120
I00
S'\x00\x00\x00\x00\x00\x00\xf0?\x00\x00\x00\x00\x00\x00\x00\x00\x00\x00\x00\x00\x00\x00\x00\x00\x00\x00\x00\x00\x00\x00\x00\x00\x00\x00\x00\x00\x00\x00\xf0?\x00\x00\x00\x00\x00\x00\x00\x00\x00\x00\x00\x00\x00\x00\x00\x00\x00\x00\x00\x00\x00\x00\x00\x00\x00\x00\x00\x00\x00\x00\xf0?'
p468
tp469
bsg58
g17
sg59
(dp470
L137116136L
g433
ssbsg59
(dp471
L137116192L
g430
ssg58
g17
sbsg241
I2
sg242
g171
sg59
(dp472
L137116304L
g1
(g100
g3
Ntp473
Rp474
(dp475
g56
I1
sg104
g1
(g105
g3
Ntp476
Rp477
(dp478
g56
I1
sg109
g110
(g111
(I0
tp479
g113
tp480
Rp481
(I1
(L2L
tp482
g120
I00
S'H\xaf\xbc\x9a\xf2\xd7z>H\xaf\xbc\x9a\xf2\xd7z>'
p483
tp484
bsg59
(dp485
L137116304L
g474
ssg126
g110
(g111
(I0
tp486
g113
tp487
Rp488
(I1
(L2L
L2L
tp489
g120
I00
S'\x00\x00\x00\x00\x00\x00\x00\x00\x00\x00\x00\x00\x00\x00\x00\x00\x00\x00\x00\x00\x00\x00\xf0?\x00\x00\x00\x00\x00\x00\xf0?'
p490
tp491
bsg133
g110
(g111
(I0
tp492
g113
tp493
Rp494
(I1
(L2L
L2L
tp495
g120
I00
S'\x00\x00\x00\x00\x00\x00\x00\x00\x00\x00\x00\x00\x00\x00\x00\x00\x00\x00\x00\x00\x00\x00\xf0?\x00\x00\x00\x00\x00\x00\xf0?'
p496
tp497
bsg140
I01
sg58
g17
sbsg93
g430
sg133
Nsg59
(dp498
sg58
g17
sbssg58
g17
sbsL136416280L
g1
(g166
g3
Ntp499
Rp500
(dp501
g56
I2
sg63
g1
(g160
g3
Ntp502
Rp503
(dp504
g56
I2
sg164
I2
sg165
g1
(cmatplotlib.transforms
TransformWrapper
p505
g3
Ntp506
Rp507
(dp508
Vparents
p509
(dp510
L136415552L
g1
(g100
g3
Ntp511
Rp512
(dp513
g56
I2
sg104
g1
(g105
g3
Ntp514
Rp515
(dp516
g56
I2
sg109
g110
(g111
(I0
tp517
g113
tp518
Rp519
(I1
(L2L
tp520
g120
I00
S'H\xaf\xbc\x9a\xf2\xd7z>H\xaf\xbc\x9a\xf2\xd7z>'
p521
tp522
bsg59
(dp523
L136415552L
g512
ssg126
g110
(g111
(I0
tp524
g113
tp525
Rp526
(I1
(L2L
L2L
tp527
g120
I00
S'\x00\x00\x00\x00\x00\x00\x00\x00\x00\x00\x00\x00\x00\x00\x00\x00\x00\x00\x00\x00\x00\x00\xf0?\x00\x00\x00\x00\x00\x00\xf0?'
p528
tp529
bsg133
g110
(g111
(I0
tp530
g113
tp531
Rp532
(I1
(L2L
L2L
tp533
g120
I00
S'\x00\x00\x00\x00\x00\x00\xf0?\x00\x00\x00\x00\x00\x00\xf0?\x00\x00\x00\x00\x00\x00\x10@\x00\x00\x00\x00\x00\x00\x10@'
p534
tp535
bsg140
I01
sg58
g17
sbsg93
g507
sg133
Nsg59
(dp536
L136415440L
g1
(cmatplotlib.transforms
BboxTransformFrom
p537
g3
Ntp538
Rp539
(dp540
g56
I2
sS'_boxin'
p541
g512
sg98
Nsg57
Nsg58
g17
sg59
(dp542
L136416056L
g1
(g160
g3
Ntp543
Rp544
(dp545
g56
I2
sg164
I2
sg165
g539
sg241
I2
sg242
g171
sg59
(dp546
L136416112L
g503
ssg58
g17
sbssbssg58
g17
sbsL136416112L
g503
ssVchild
p547
g1
(g200
g3
Ntp548
Rp549
(dp550
g56
I0
sg98
g110
(g111
(I0
tp551
g113
tp552
Rp553
(I1
(L3L
L3L
tp554
g120
I00
S'\x00\x00\x00\x00\x00\x00\xf0?\x00\x00\x00\x00\x00\x00\x00\x00\x00\x00\x00\x00\x00\x00\x00\x00\x00\x00\x00\x00\x00\x00\x00\x00\x00\x00\x00\x00\x00\x00\xf0?\x00\x00\x00\x00\x00\x00\x00\x00\x00\x00\x00\x00\x00\x00\x00\x00\x00\x00\x00\x00\x00\x00\x00\x00\x00\x00\x00\x00\x00\x00\xf0?'
p555
tp556
bsg63
g1
(g52
g3
Ntp557
Rp558
(dp559
g56
I1
sg57
Nsg58
g17
sg59
(dp560
L137058176L
g549
ssbsg64
g1
(g52
g3
Ntp561
Rp562
(dp563
g56
I1
sg57
Nsg58
g17
sg59
(dp564
L137058176L
g549
ssbsg57
Nsg58
g17
sg59
(dp565
L136415888L
g507
ssbsbsg241
I2
sg242
g544
sg59
(dp566
L136416224L
g168
sL136416280L
g500
ssg58
g17
sbsg64
g171
sS'_affine'
p567
Nsg59
(dp568
L136480416L
g1
(g160
g3
Ntp569
Rp570
(dp571
g56
I2
sg164
I2
sg165
g500
sg241
I2
sg242
g1
(g152
g3
Ntp572
Rp573
(dp574
g56
I1
sg98
Nsg156
g143
sg57
Nsg157
(F-0.05555555555555555
I0
tp575
sg58
g17
sg59
(dp576
L136480416L
g570
ssbsg59
(dp577
sg58
g17
sbsL136910664L
g1
(g160
g3
Ntp578
Rp579
(dp580
g56
I2
sg164
I2
sg165
g500
sg241
I2
sg242
g1
(g152
g3
Ntp581
Rp582
(dp583
g56
I1
sg98
Nsg156
g143
sg57
Nsg157
(F-0.05555555555555555
I0
tp584
sg58
g17
sg59
(dp585
L136910664L
g579
ssbsg59
(dp586
sg58
g17
sbsL136912624L
g1
(g160
g3
Ntp587
Rp588
(dp589
g56
I2
sg164
I2
sg165
g500
sg241
I2
sg242
g1
(g152
g3
Ntp590
Rp591
(dp592
g56
I1
sg98
Nsg156
g143
sg57
Nsg157
(F0.05555555555555555
I0
tp593
sg58
g17
sg59
(dp594
L136912624L
g588
ssbsg59
(dp595
sg58
g17
sbsL136481704L
g1
(g160
g3
Ntp596
Rp597
(dp598
g56
I2
sg164
I2
sg165
g500
sg241
I2
sg242
g1
(g152
g3
Ntp599
Rp600
(dp601
g56
I1
sg98
Nsg156
g143
sg57
Nsg157
(F0.05555555555555555
I0
tp602
sg58
g17
sg59
(dp603
L136481704L
g597
ssbsg59
(dp604
sg58
g17
sbsL137013288L
g1
(g160
g3
Ntp605
Rp606
(dp607
g56
I2
sg164
I2
sg165
g500
sg241
I2
sg242
g1
(g152
g3
Ntp608
Rp609
(dp610
g56
I1
sg98
Nsg156
g143
sg57
Nsg157
(F0.05555555555555555
I0
tp611
sg58
g17
sg59
(dp612
L137013288L
g606
ssbsg59
(dp613
sg58
g17
sbsL137057336L
g1
(g160
g3
Ntp614
Rp615
(dp616
g56
I2
sg164
I2
sg165
g500
sg241
I2
sg242
g1
(g152
g3
Ntp617
Rp618
(dp619
g56
I1
sg98
Nsg156
g143
sg57
Nsg157
(F-0.05555555555555555
I0
tp620
sg58
g17
sg59
(dp621
L137057336L
g615
ssbsg59
(dp622
sg58
g17
sbsL137014408L
g1
(g160
g3
Ntp623
Rp624
(dp625
g56
I2
sg164
I2
sg165
g500
sg241
I2
sg242
g1
(g152
g3
Ntp626
Rp627
(dp628
g56
I1
sg98
Nsg156
g143
sg57
Nsg157
(F-0.05555555555555555
I0
tp629
sg58
g17
sg59
(dp630
L137014408L
g624
ssbsg59
(dp631
sg58
g17
sbsL137057560L
g1
(g160
g3
Ntp632
Rp633
(dp634
g56
I2
sg164
I2
sg165
g500
sg241
I2
sg242
g1
(g152
g3
Ntp635
Rp636
(dp637
g56
I1
sg98
Nsg156
g143
sg57
Nsg157
(F0.05555555555555555
I0
tp638
sg58
g17
sg59
(dp639
L137057560L
g633
ssbsg59
(dp640
sg58
g17
sbssg58
g17
sbsL137115408L
g1
(g160
g3
Ntp641
Rp642
(dp643
g56
I1
sg164
I2
sg165
g1
(g160
g3
Ntp644
Rp645
(dp646
g56
I1
sg164
I2
sg165
g1
(g94
g3
Ntp647
Rp648
(dp649
g56
I1
sg98
Nsg57
Nsg99
g1
(g105
g3
Ntp650
Rp651
(dp652
g56
I1
sg109
g110
(g111
(I0
tp653
g113
tp654
Rp655
(I1
(L2L
tp656
g120
I00
S'H\xaf\xbc\x9a\xf2\xd7z>H\xaf\xbc\x9a\xf2\xd7z>'
p657
tp658
bsg59
(dp659
L137115240L
g648
ssg126
g110
(g111
(I0
tp660
g113
tp661
Rp662
(I1
(L2L
L2L
tp663
g120
I00
S'\x00\x00\x00\x00\x00\x00\x00\x00\x00\x00\x00\x00\x00\x00\x00\x00\x00\x00\x00\x00\x00\x00\xf0?\x00\x00\x00\x00\x00\x00\xf0?'
p664
tp665
bsg133
g110
(g111
(I0
tp666
g113
tp667
Rp668
(I1
(L2L
L2L
tp669
g120
I00
S'\x00\x00\x00\x00\x00\x00\x00\x00\x00\x00\x00\x00\x00\x00\x00\x00\x00\x00\x00\x00\x00\x00\xf0?\x00\x00\x00\x00\x00\x00\xf0?'
p670
tp671
bsg140
I01
sg58
g17
sbsg59
(dp672
L137115352L
g645
ssg58
g17
sbsg241
I2
sg242
g1
(g141
g3
Ntp673
Rp674
(dp675
g56
I2
sg57
Nsg98
g110
(g111
(I0
tp676
g113
tp677
Rp678
(I1
(L3L
L3L
tp679
g120
I00
S'\x00\x00\x00\x00\x00\x00\xf0?\x00\x00\x00\x00\x00\x00\x00\x00\x00\x00\x00\x00\x00\x00\x00\x00\x00\x00\x00\x00\x00\x00\x00\x00\x00\x00\x00\x00\x00\x00\xf0?\x00\x00\x00\x00\x00\x00\x00\x00\x00\x00\x00\x00\x00\x00\x00\x00\x00\x00\x00\x00\x00\x00\x00\x00\x00\x00\x00\x00\x00\x00\xf0?'
p680
tp681
bsg58
g17
sg59
(dp682
L137115352L
g645
ssbsg59
(dp683
L137115408L
g642
ssg58
g17
sbsg241
I2
sg242
g171
sg59
(dp684
L137115520L
g1
(g100
g3
Ntp685
Rp686
(dp687
g56
I1
sg104
g1
(g105
g3
Ntp688
Rp689
(dp690
g56
I1
sg109
g110
(g111
(I0
tp691
g113
tp692
Rp693
(I1
(L2L
tp694
g120
I00
S'H\xaf\xbc\x9a\xf2\xd7z>H\xaf\xbc\x9a\xf2\xd7z>'
p695
tp696
bsg59
(dp697
L137115520L
g686
ssg126
g110
(g111
(I0
tp698
g113
tp699
Rp700
(I1
(L2L
L2L
tp701
g120
I00
S'\x00\x00\x00\x00\x00\x00\x00\x00\x00\x00\x00\x00\x00\x00\x00\x00\x00\x00\x00\x00\x00\x00\xf0?\x00\x00\x00\x00\x00\x00\xf0?'
p702
tp703
bsg133
g110
(g111
(I0
tp704
g113
tp705
Rp706
(I1
(L2L
L2L
tp707
g120
I00
S'\x00\x00\x00\x00\x00\x00\x00\x00\x00\x00\x00\x00\x00\x00\x00\x00\x00\x00\x00\x00\x00\x00\xf0?\x00\x00\x00\x00\x00\x00\xf0?'
p708
tp709
bsg140
I01
sg58
g17
sbsg93
g642
sg133
Nsg59
(dp710
sg58
g17
sbssg58
g17
sbsL137247040L
g1
(g160
g3
Ntp711
Rp712
(dp713
g56
I1
sg164
I2
sg165
g1
(g160
g3
Ntp714
Rp715
(dp716
g56
I1
sg164
I2
sg165
g1
(g94
g3
Ntp717
Rp718
(dp719
g56
I1
sg98
Nsg57
Nsg99
g1
(g105
g3
Ntp720
Rp721
(dp722
g56
I1
sg109
g110
(g111
(I0
tp723
g113
tp724
Rp725
(I1
(L2L
tp726
g120
I00
S'H\xaf\xbc\x9a\xf2\xd7z>H\xaf\xbc\x9a\xf2\xd7z>'
p727
tp728
bsg59
(dp729
L137246872L
g718
ssg126
g110
(g111
(I0
tp730
g113
tp731
Rp732
(I1
(L2L
L2L
tp733
g120
I00
S'\x00\x00\x00\x00\x00\x00\x00\x00\x00\x00\x00\x00\x00\x00\x00\x00\x00\x00\x00\x00\x00\x00\xf0?\x00\x00\x00\x00\x00\x00\xf0?'
p734
tp735
bsg133
g110
(g111
(I0
tp736
g113
tp737
Rp738
(I1
(L2L
L2L
tp739
g120
I00
S'\x00\x00\x00\x00\x00\x00\x00\x00\x00\x00\x00\x00\x00\x00\x00\x00\x00\x00\x00\x00\x00\x00\xf0?\x00\x00\x00\x00\x00\x00\xf0?'
p740
tp741
bsg140
I01
sg58
g17
sbsg59
(dp742
L137246984L
g715
ssg58
g17
sbsg241
I2
sg242
g1
(g141
g3
Ntp743
Rp744
(dp745
g56
I2
sg57
Nsg98
g110
(g111
(I0
tp746
g113
tp747
Rp748
(I1
(L3L
L3L
tp749
g120
I00
S'\x00\x00\x00\x00\x00\x00\xf0?\x00\x00\x00\x00\x00\x00\x00\x00\x00\x00\x00\x00\x00\x00\x00\x00\x00\x00\x00\x00\x00\x00\x00\x00\x00\x00\x00\x00\x00\x00\xf0?\x00\x00\x00\x00\x00\x00\x00\x00\x00\x00\x00\x00\x00\x00\x00\x00\x00\x00\x00\x00\x00\x00\x00\x00\x00\x00\x00\x00\x00\x00\xf0?'
p750
tp751
bsg58
g17
sg59
(dp752
L137246984L
g715
ssbsg59
(dp753
L137247040L
g712
ssg58
g17
sbsg241
I2
sg242
g171
sg59
(dp754
L137247152L
g1
(g100
g3
Ntp755
Rp756
(dp757
g56
I1
sg104
g1
(g105
g3
Ntp758
Rp759
(dp760
g56
I1
sg109
g110
(g111
(I0
tp761
g113
tp762
Rp763
(I1
(L2L
tp764
g120
I00
S'H\xaf\xbc\x9a\xf2\xd7z>H\xaf\xbc\x9a\xf2\xd7z>'
p765
tp766
bsg59
(dp767
L137247152L
g756
ssg126
g110
(g111
(I0
tp768
g113
tp769
Rp770
(I1
(L2L
L2L
tp771
g120
I00
S'\x00\x00\x00\x00\x00\x00\x00\x00\x00\x00\x00\x00\x00\x00\x00\x00\x00\x00\x00\x00\x00\x00\xf0?\x00\x00\x00\x00\x00\x00\xf0?'
p772
tp773
bsg133
g110
(g111
(I0
tp774
g113
tp775
Rp776
(I1
(L2L
L2L
tp777
g120
I00
S'\x00\x00\x00\x00\x00\x00\x00\x00\x00\x00\x00\x00\x00\x00\x00\x00\x00\x00\x00\x00\x00\x00\xf0?\x00\x00\x00\x00\x00\x00\xf0?'
p778
tp779
bsg140
I01
sg58
g17
sbsg93
g712
sg133
Nsg59
(dp780
sg58
g17
sbssg58
g17
sbsL137058848L
g1
(g160
g3
Ntp781
Rp782
(dp783
g56
I1
sg164
I2
sg165
g171
sg241
I2
sg242
g1
(g152
g3
Ntp784
Rp785
(dp786
g56
I1
sg98
Nsg156
g143
sg57
Nsg157
(F0.0
F0.06944444444444445
tp787
sg58
g17
sg59
(dp788
L137058848L
g782
sL137058904L
g1
(g160
g3
Ntp789
Rp790
(dp791
g56
I1
sg164
I2
sg165
g171
sg241
I2
sg242
g785
sg59
(dp792
sg58
g17
sbsL137058960L
g1
(g160
g3
Ntp793
Rp794
(dp795
g56
I1
sg164
I2
sg165
g171
sg241
I2
sg242
g785
sg59
(dp796
sg58
g17
sbssbsg59
(dp797
sg58
g17
sbsL137116976L
g1
(g160
g3
Ntp798
Rp799
(dp800
g56
I1
sg164
I2
sg165
g1
(g160
g3
Ntp801
Rp802
(dp803
g56
I1
sg164
I2
sg165
g1
(g94
g3
Ntp804
Rp805
(dp806
g56
I1
sg98
Nsg57
Nsg99
g1
(g105
g3
Ntp807
Rp808
(dp809
g56
I1
sg109
g110
(g111
(I0
tp810
g113
tp811
Rp812
(I1
(L2L
tp813
g120
I00
S'H\xaf\xbc\x9a\xf2\xd7z>H\xaf\xbc\x9a\xf2\xd7z>'
p814
tp815
bsg59
(dp816
L137116808L
g805
ssg126
g110
(g111
(I0
tp817
g113
tp818
Rp819
(I1
(L2L
L2L
tp820
g120
I00
S'\x00\x00\x00\x00\x00\x00\x00\x00\x00\x00\x00\x00\x00\x00\x00\x00\x00\x00\x00\x00\x00\x00\xf0?\x00\x00\x00\x00\x00\x00\xf0?'
p821
tp822
bsg133
g110
(g111
(I0
tp823
g113
tp824
Rp825
(I1
(L2L
L2L
tp826
g120
I00
S'\x00\x00\x00\x00\x00\x00\x00\x00\x00\x00\x00\x00\x00\x00\x00\x00\x00\x00\x00\x00\x00\x00\xf0?\x00\x00\x00\x00\x00\x00\xf0?'
p827
tp828
bsg140
I01
sg58
g17
sbsg59
(dp829
L137116920L
g802
ssg58
g17
sbsg241
I2
sg242
g1
(g141
g3
Ntp830
Rp831
(dp832
g56
I2
sg57
Nsg98
g110
(g111
(I0
tp833
g113
tp834
Rp835
(I1
(L3L
L3L
tp836
g120
I00
S'\x00\x00\x00\x00\x00\x00\xf0?\x00\x00\x00\x00\x00\x00\x00\x00\x00\x00\x00\x00\x00\x00\x00\x00\x00\x00\x00\x00\x00\x00\x00\x00\x00\x00\x00\x00\x00\x00\xf0?\x00\x00\x00\x00\x00\x00\x00\x00\x00\x00\x00\x00\x00\x00\x00\x00\x00\x00\x00\x00\x00\x00\x00\x00\x00\x00\x00\x00\x00\x00\xf0?'
p837
tp838
bsg58
g17
sg59
(dp839
L137116920L
g802
ssbsg59
(dp840
L137116976L
g799
ssg58
g17
sbsg241
I2
sg242
g171
sg59
(dp841
L137117088L
g1
(g100
g3
Ntp842
Rp843
(dp844
g56
I1
sg104
g1
(g105
g3
Ntp845
Rp846
(dp847
g56
I1
sg109
g110
(g111
(I0
tp848
g113
tp849
Rp850
(I1
(L2L
tp851
g120
I00
S'H\xaf\xbc\x9a\xf2\xd7z>H\xaf\xbc\x9a\xf2\xd7z>'
p852
tp853
bsg59
(dp854
L137117088L
g843
ssg126
g110
(g111
(I0
tp855
g113
tp856
Rp857
(I1
(L2L
L2L
tp858
g120
I00
S'\x00\x00\x00\x00\x00\x00\x00\x00\x00\x00\x00\x00\x00\x00\x00\x00\x00\x00\x00\x00\x00\x00\xf0?\x00\x00\x00\x00\x00\x00\xf0?'
p859
tp860
bsg133
g110
(g111
(I0
tp861
g113
tp862
Rp863
(I1
(L2L
L2L
tp864
g120
I00
S'\x00\x00\x00\x00\x00\x00\x00\x00\x00\x00\x00\x00\x00\x00\x00\x00\x00\x00\x00\x00\x00\x00\xf0?\x00\x00\x00\x00\x00\x00\xf0?'
p865
tp866
bsg140
I01
sg58
g17
sbsg93
g799
sg133
Nsg59
(dp867
sg58
g17
sbssg58
g17
sbsL136416224L
g168
sL137246256L
g1
(g160
g3
Ntp868
Rp869
(dp870
g56
I1
sg164
I2
sg165
g1
(g160
g3
Ntp871
Rp872
(dp873
g56
I1
sg164
I2
sg165
g1
(g94
g3
Ntp874
Rp875
(dp876
g56
I1
sg98
Nsg57
Nsg99
g1
(g105
g3
Ntp877
Rp878
(dp879
g56
I1
sg109
g110
(g111
(I0
tp880
g113
tp881
Rp882
(I1
(L2L
tp883
g120
I00
S'H\xaf\xbc\x9a\xf2\xd7z>H\xaf\xbc\x9a\xf2\xd7z>'
p884
tp885
bsg59
(dp886
L137246088L
g875
ssg126
g110
(g111
(I0
tp887
g113
tp888
Rp889
(I1
(L2L
L2L
tp890
g120
I00
S'\x00\x00\x00\x00\x00\x00\x00\x00\x00\x00\x00\x00\x00\x00\x00\x00\x00\x00\x00\x00\x00\x00\xf0?\x00\x00\x00\x00\x00\x00\xf0?'
p891
tp892
bsg133
g110
(g111
(I0
tp893
g113
tp894
Rp895
(I1
(L2L
L2L
tp896
g120
I00
S'\x00\x00\x00\x00\x00\x00\x00\x00\x00\x00\x00\x00\x00\x00\x00\x00\x00\x00\x00\x00\x00\x00\xf0?\x00\x00\x00\x00\x00\x00\xf0?'
p897
tp898
bsg140
I01
sg58
g17
sbsg59
(dp899
L137246200L
g872
ssg58
g17
sbsg241
I2
sg242
g1
(g141
g3
Ntp900
Rp901
(dp902
g56
I2
sg57
Nsg98
g110
(g111
(I0
tp903
g113
tp904
Rp905
(I1
(L3L
L3L
tp906
g120
I00
S'\x00\x00\x00\x00\x00\x00\xf0?\x00\x00\x00\x00\x00\x00\x00\x00\x00\x00\x00\x00\x00\x00\x00\x00\x00\x00\x00\x00\x00\x00\x00\x00\x00\x00\x00\x00\x00\x00\xf0?\x00\x00\x00\x00\x00\x00\x00\x00\x00\x00\x00\x00\x00\x00\x00\x00\x00\x00\x00\x00\x00\x00\x00\x00\x00\x00\x00\x00\x00\x00\xf0?'
p907
tp908
bsg58
g17
sg59
(dp909
L137246200L
g872
ssbsg59
(dp910
L137246256L
g869
ssg58
g17
sbsg241
I2
sg242
g171
sg59
(dp911
L137246368L
g1
(g100
g3
Ntp912
Rp913
(dp914
g56
I1
sg104
g1
(g105
g3
Ntp915
Rp916
(dp917
g56
I1
sg109
g110
(g111
(I0
tp918
g113
tp919
Rp920
(I1
(L2L
tp921
g120
I00
S'H\xaf\xbc\x9a\xf2\xd7z>H\xaf\xbc\x9a\xf2\xd7z>'
p922
tp923
bsg59
(dp924
L137246368L
g913
ssg126
g110
(g111
(I0
tp925
g113
tp926
Rp927
(I1
(L2L
L2L
tp928
g120
I00
S'\x00\x00\x00\x00\x00\x00\x00\x00\x00\x00\x00\x00\x00\x00\x00\x00\x00\x00\x00\x00\x00\x00\xf0?\x00\x00\x00\x00\x00\x00\xf0?'
p929
tp930
bsg133
g110
(g111
(I0
tp931
g113
tp932
Rp933
(I1
(L2L
L2L
tp934
g120
I00
S'\x00\x00\x00\x00\x00\x00\x00\x00\x00\x00\x00\x00\x00\x00\x00\x00\x00\x00\x00\x00\x00\x00\xf0?\x00\x00\x00\x00\x00\x00\xf0?'
p935
tp936
bsg140
I01
sg58
g17
sbsg93
g869
sg133
Nsg59
(dp937
sg58
g17
sbssg58
g17
sbsL137181560L
g1
(g160
g3
Ntp938
Rp939
(dp940
g56
I1
sg164
I2
sg165
g1
(g160
g3
Ntp941
Rp942
(dp943
g56
I1
sg164
I2
sg165
g1
(g94
g3
Ntp944
Rp945
(dp946
g56
I1
sg98
Nsg57
Nsg99
g1
(g105
g3
Ntp947
Rp948
(dp949
g56
I1
sg109
g110
(g111
(I0
tp950
g113
tp951
Rp952
(I1
(L2L
tp953
g120
I00
S'H\xaf\xbc\x9a\xf2\xd7z>H\xaf\xbc\x9a\xf2\xd7z>'
p954
tp955
bsg59
(dp956
L137181392L
g945
ssg126
g110
(g111
(I0
tp957
g113
tp958
Rp959
(I1
(L2L
L2L
tp960
g120
I00
S'\x00\x00\x00\x00\x00\x00\x00\x00\x00\x00\x00\x00\x00\x00\x00\x00\x00\x00\x00\x00\x00\x00\xf0?\x00\x00\x00\x00\x00\x00\xf0?'
p961
tp962
bsg133
g110
(g111
(I0
tp963
g113
tp964
Rp965
(I1
(L2L
L2L
tp966
g120
I00
S'\x00\x00\x00\x00\x00\x00\x00\x00\x00\x00\x00\x00\x00\x00\x00\x00\x00\x00\x00\x00\x00\x00\xf0?\x00\x00\x00\x00\x00\x00\xf0?'
p967
tp968
bsg140
I01
sg58
g17
sbsg59
(dp969
L137181504L
g942
ssg58
g17
sbsg241
I2
sg242
g1
(g141
g3
Ntp970
Rp971
(dp972
g56
I2
sg57
Nsg98
g110
(g111
(I0
tp973
g113
tp974
Rp975
(I1
(L3L
L3L
tp976
g120
I00
S'\x00\x00\x00\x00\x00\x00\xf0?\x00\x00\x00\x00\x00\x00\x00\x00\x00\x00\x00\x00\x00\x00\x00\x00\x00\x00\x00\x00\x00\x00\x00\x00\x00\x00\x00\x00\x00\x00\xf0?\x00\x00\x00\x00\x00\x00\x00\x00\x00\x00\x00\x00\x00\x00\x00\x00\x00\x00\x00\x00\x00\x00\x00\x00\x00\x00\x00\x00\x00\x00\xf0?'
p977
tp978
bsg58
g17
sg59
(dp979
L137181504L
g942
ssbsg59
(dp980
L137181560L
g939
ssg58
g17
sbsg241
I2
sg242
g171
sg59
(dp981
L137181672L
g1
(g100
g3
Ntp982
Rp983
(dp984
g56
I1
sg104
g1
(g105
g3
Ntp985
Rp986
(dp987
g56
I1
sg109
g110
(g111
(I0
tp988
g113
tp989
Rp990
(I1
(L2L
tp991
g120
I00
S'H\xaf\xbc\x9a\xf2\xd7z>H\xaf\xbc\x9a\xf2\xd7z>'
p992
tp993
bsg59
(dp994
L137181672L
g983
ssg126
g110
(g111
(I0
tp995
g113
tp996
Rp997
(I1
(L2L
L2L
tp998
g120
I00
S'\x00\x00\x00\x00\x00\x00\x00\x00\x00\x00\x00\x00\x00\x00\x00\x00\x00\x00\x00\x00\x00\x00\xf0?\x00\x00\x00\x00\x00\x00\xf0?'
p999
tp1000
bsg133
g110
(g111
(I0
tp1001
g113
tp1002
Rp1003
(I1
(L2L
L2L
tp1004
g120
I00
S'\x00\x00\x00\x00\x00\x00\x00\x00\x00\x00\x00\x00\x00\x00\x00\x00\x00\x00\x00\x00\x00\x00\xf0?\x00\x00\x00\x00\x00\x00\xf0?'
p1005
tp1006
bsg140
I01
sg58
g17
sbsg93
g939
sg133
Nsg59
(dp1007
sg58
g17
sbssg58
g17
sbsL136416056L
g544
sL137058960L
g794
sL137306800L
g1
(g160
g3
Ntp1008
Rp1009
(dp1010
g56
I1
sg164
I2
sg165
g1
(g160
g3
Ntp1011
Rp1012
(dp1013
g56
I1
sg164
I2
sg165
g1
(g94
g3
Ntp1014
Rp1015
(dp1016
g56
I1
sg98
Nsg57
Nsg99
g1
(g105
g3
Ntp1017
Rp1018
(dp1019
g56
I1
sg109
g110
(g111
(I0
tp1020
g113
tp1021
Rp1022
(I1
(L2L
tp1023
g120
I00
S'H\xaf\xbc\x9a\xf2\xd7z>H\xaf\xbc\x9a\xf2\xd7z>'
p1024
tp1025
bsg59
(dp1026
L137306632L
g1015
ssg126
g110
(g111
(I0
tp1027
g113
tp1028
Rp1029
(I1
(L2L
L2L
tp1030
g120
I00
S'\x00\x00\x00\x00\x00\x00\x00\x00\x00\x00\x00\x00\x00\x00\x00\x00\x00\x00\x00\x00\x00\x00\xf0?\x00\x00\x00\x00\x00\x00\xf0?'
p1031
tp1032
bsg133
g110
(g111
(I0
tp1033
g113
tp1034
Rp1035
(I1
(L2L
L2L
tp1036
g120
I00
S'\x00\x00\x00\x00\x00\x00\x00\x00\x00\x00\x00\x00\x00\x00\x00\x00\x00\x00\x00\x00\x00\x00\xf0?\x00\x00\x00\x00\x00\x00\xf0?'
p1037
tp1038
bsg140
I01
sg58
g17
sbsg59
(dp1039
L137306744L
g1012
ssg58
g17
sbsg241
I2
sg242
g1
(g141
g3
Ntp1040
Rp1041
(dp1042
g56
I2
sg57
Nsg98
g110
(g111
(I0
tp1043
g113
tp1044
Rp1045
(I1
(L3L
L3L
tp1046
g120
I00
S'\x00\x00\x00\x00\x00\x00\xf0?\x00\x00\x00\x00\x00\x00\x00\x00\x00\x00\x00\x00\x00\x00\x00\x00\x00\x00\x00\x00\x00\x00\x00\x00\x00\x00\x00\x00\x00\x00\xf0?\x00\x00\x00\x00\x00\x00\x00\x00\x00\x00\x00\x00\x00\x00\x00\x00\x00\x00\x00\x00\x00\x00\x00\x00\x00\x00\x00\x00\x00\x00\xf0?'
p1047
tp1048
bsg58
g17
sg59
(dp1049
L137306744L
g1012
ssbsg59
(dp1050
L137306800L
g1009
ssg58
g17
sbsg241
I2
sg242
g171
sg59
(dp1051
L137306912L
g1
(g100
g3
Ntp1052
Rp1053
(dp1054
g56
I1
sg104
g1
(g105
g3
Ntp1055
Rp1056
(dp1057
g56
I1
sg109
g110
(g111
(I0
tp1058
g113
tp1059
Rp1060
(I1
(L2L
tp1061
g120
I00
S'H\xaf\xbc\x9a\xf2\xd7z>H\xaf\xbc\x9a\xf2\xd7z>'
p1062
tp1063
bsg59
(dp1064
L137306912L
g1053
ssg126
g110
(g111
(I0
tp1065
g113
tp1066
Rp1067
(I1
(L2L
L2L
tp1068
g120
I00
S'\x00\x00\x00\x00\x00\x00\x00\x00\x00\x00\x00\x00\x00\x00\x00\x00\x00\x00\x00\x00\x00\x00\xf0?\x00\x00\x00\x00\x00\x00\xf0?'
p1069
tp1070
bsg133
g110
(g111
(I0
tp1071
g113
tp1072
Rp1073
(I1
(L2L
L2L
tp1074
g120
I00
S'\x00\x00\x00\x00\x00\x00\x00\x00\x00\x00\x00\x00\x00\x00\x00\x00\x00\x00\x00\x00\x00\x00\xf0?\x00\x00\x00\x00\x00\x00\xf0?'
p1075
tp1076
bsg140
I01
sg58
g17
sbsg93
g1009
sg133
Nsg59
(dp1077
sg58
g17
sbssg58
g17
sbsL137182400L
g1
(g160
g3
Ntp1078
Rp1079
(dp1080
g56
I1
sg164
I2
sg165
g1
(g160
g3
Ntp1081
Rp1082
(dp1083
g56
I1
sg164
I2
sg165
g1
(g94
g3
Ntp1084
Rp1085
(dp1086
g56
I1
sg98
Nsg57
Nsg99
g1
(g105
g3
Ntp1087
Rp1088
(dp1089
g56
I1
sg109
g110
(g111
(I0
tp1090
g113
tp1091
Rp1092
(I1
(L2L
tp1093
g120
I00
S'H\xaf\xbc\x9a\xf2\xd7z>H\xaf\xbc\x9a\xf2\xd7z>'
p1094
tp1095
bsg59
(dp1096
L137182232L
g1085
ssg126
g110
(g111
(I0
tp1097
g113
tp1098
Rp1099
(I1
(L2L
L2L
tp1100
g120
I00
S'\x00\x00\x00\x00\x00\x00\x00\x00\x00\x00\x00\x00\x00\x00\x00\x00\x00\x00\x00\x00\x00\x00\xf0?\x00\x00\x00\x00\x00\x00\xf0?'
p1101
tp1102
bsg133
g110
(g111
(I0
tp1103
g113
tp1104
Rp1105
(I1
(L2L
L2L
tp1106
g120
I00
S'\x00\x00\x00\x00\x00\x00\x00\x00\x00\x00\x00\x00\x00\x00\x00\x00\x00\x00\x00\x00\x00\x00\xf0?\x00\x00\x00\x00\x00\x00\xf0?'
p1107
tp1108
bsg140
I01
sg58
g17
sbsg59
(dp1109
L137182344L
g1082
ssg58
g17
sbsg241
I2
sg242
g1
(g141
g3
Ntp1110
Rp1111
(dp1112
g56
I2
sg57
Nsg98
g110
(g111
(I0
tp1113
g113
tp1114
Rp1115
(I1
(L3L
L3L
tp1116
g120
I00
S'\x00\x00\x00\x00\x00\x00\xf0?\x00\x00\x00\x00\x00\x00\x00\x00\x00\x00\x00\x00\x00\x00\x00\x00\x00\x00\x00\x00\x00\x00\x00\x00\x00\x00\x00\x00\x00\x00\xf0?\x00\x00\x00\x00\x00\x00\x00\x00\x00\x00\x00\x00\x00\x00\x00\x00\x00\x00\x00\x00\x00\x00\x00\x00\x00\x00\x00\x00\x00\x00\xf0?'
p1117
tp1118
bsg58
g17
sg59
(dp1119
L137182344L
g1082
ssbsg59
(dp1120
L137182400L
g1079
ssg58
g17
sbsg241
I2
sg242
g171
sg59
(dp1121
L137182512L
g1
(g100
g3
Ntp1122
Rp1123
(dp1124
g56
I1
sg104
g1
(g105
g3
Ntp1125
Rp1126
(dp1127
g56
I1
sg109
g110
(g111
(I0
tp1128
g113
tp1129
Rp1130
(I1
(L2L
tp1131
g120
I00
S'H\xaf\xbc\x9a\xf2\xd7z>H\xaf\xbc\x9a\xf2\xd7z>'
p1132
tp1133
bsg59
(dp1134
L137182512L
g1123
ssg126
g110
(g111
(I0
tp1135
g113
tp1136
Rp1137
(I1
(L2L
L2L
tp1138
g120
I00
S'\x00\x00\x00\x00\x00\x00\x00\x00\x00\x00\x00\x00\x00\x00\x00\x00\x00\x00\x00\x00\x00\x00\xf0?\x00\x00\x00\x00\x00\x00\xf0?'
p1139
tp1140
bsg133
g110
(g111
(I0
tp1141
g113
tp1142
Rp1143
(I1
(L2L
L2L
tp1144
g120
I00
S'\x00\x00\x00\x00\x00\x00\x00\x00\x00\x00\x00\x00\x00\x00\x00\x00\x00\x00\x00\x00\x00\x00\xf0?\x00\x00\x00\x00\x00\x00\xf0?'
p1145
tp1146
bsg140
I01
sg58
g17
sbsg93
g1079
sg133
Nsg59
(dp1147
sg58
g17
sbssg58
g17
sbsL137059744L
g1
(g160
g3
Ntp1148
Rp1149
(dp1150
g56
I1
sg164
I2
sg165
g1
(g160
g3
Ntp1151
Rp1152
(dp1153
g56
I1
sg164
I2
sg165
g1
(g94
g3
Ntp1154
Rp1155
(dp1156
g56
I1
sg98
Nsg57
Nsg99
g1
(g105
g3
Ntp1157
Rp1158
(dp1159
g56
I1
sg109
g110
(g111
(I0
tp1160
g113
tp1161
Rp1162
(I1
(L2L
tp1163
g120
I00
S'H\xaf\xbc\x9a\xf2\xd7z>H\xaf\xbc\x9a\xf2\xd7z>'
p1164
tp1165
bsg59
(dp1166
L137059632L
g1155
ssg126
g110
(g111
(I0
tp1167
g113
tp1168
Rp1169
(I1
(L2L
L2L
tp1170
g120
I00
S'\x00\x00\x00\x00\x00\x00\x00\x00\x00\x00\x00\x00\x00\x00\x00\x00\x00\x00\x00\x00\x00\x00\xf0?\x00\x00\x00\x00\x00\x00\xf0?'
p1171
tp1172
bsg133
g110
(g111
(I0
tp1173
g113
tp1174
Rp1175
(I1
(L2L
L2L
tp1176
g120
I00
S'\x00\x00\x00\x00\x00\x00\x00\x00\x00\x00\x00\x00\x00\x00\x00\x00\x00\x00\x00\x00\x00\x00\xf0?\x00\x00\x00\x00\x00\x00\xf0?'
p1177
tp1178
bsg140
I01
sg58
g17
sbsg59
(dp1179
L137059184L
g1152
ssg58
g17
sbsg241
I2
sg242
g1
(g141
g3
Ntp1180
Rp1181
(dp1182
g56
I2
sg57
Nsg98
g110
(g111
(I0
tp1183
g113
tp1184
Rp1185
(I1
(L3L
L3L
tp1186
g120
I00
S'\x00\x00\x00\x00\x00\x00\xf0?\x00\x00\x00\x00\x00\x00\x00\x00\x00\x00\x00\x00\x00\x00\x00\x00\x00\x00\x00\x00\x00\x00\x00\x00\x00\x00\x00\x00\x00\x00\xf0?\x00\x00\x00\x00\x00\x00\x00\x00\x00\x00\x00\x00\x00\x00\x00\x00\x00\x00\x00\x00\x00\x00\x00\x00\x00\x00\x00\x00\x00\x00\xf0?'
p1187
tp1188
bsg58
g17
sg59
(dp1189
L137059184L
g1152
ssbsg59
(dp1190
L137059744L
g1149
ssg58
g17
sbsg241
I2
sg242
g171
sg59
(dp1191
L137059800L
g1
(g100
g3
Ntp1192
Rp1193
(dp1194
g56
I1
sg104
g1
(g105
g3
Ntp1195
Rp1196
(dp1197
g56
I1
sg109
g110
(g111
(I0
tp1198
g113
tp1199
Rp1200
(I1
(L2L
tp1201
g120
I00
S'H\xaf\xbc\x9a\xf2\xd7z>H\xaf\xbc\x9a\xf2\xd7z>'
p1202
tp1203
bsg59
(dp1204
L137059800L
g1193
ssg126
g110
(g111
(I0
tp1205
g113
tp1206
Rp1207
(I1
(L2L
L2L
tp1208
g120
I00
S'\x00\x00\x00\x00\x00\x00\x00\x00\x00\x00\x00\x00\x00\x00\x00\x00\x00\x00\x00\x00\x00\x00\xf0?\x00\x00\x00\x00\x00\x00\xf0?'
p1209
tp1210
bsg133
g110
(g111
(I0
tp1211
g113
tp1212
Rp1213
(I1
(L2L
L2L
tp1214
g120
I00
S'\x00\x00\x00\x00\x00\x00\x00\x00\x00\x00\x00\x00\x00\x00\x00\x00\x00\x00\x00\x00\x00\x00\xf0?\x00\x00\x00\x00\x00\x00\xf0?'
p1215
tp1216
bsg140
I01
sg58
g17
sbsg93
g1149
sg133
Nsg59
(dp1217
sg58
g17
sbssg58
g17
sbsL136559696L
g1
(g200
g3
Ntp1218
Rp1219
(dp1220
g56
I1
sg98
Nsg63
g1
(g52
g3
Ntp1221
Rp1222
(dp1223
g56
I1
sg57
Nsg58
g17
sg59
(dp1224
L136559696L
g1219
ssbsg64
g171
sg57
Nsg58
g17
sg59
(dp1225
sbsL137183184L
g1
(g160
g3
Ntp1226
Rp1227
(dp1228
g56
I1
sg164
I2
sg165
g1
(g160
g3
Ntp1229
Rp1230
(dp1231
g56
I1
sg164
I2
sg165
g1
(g94
g3
Ntp1232
Rp1233
(dp1234
g56
I1
sg98
Nsg57
Nsg99
g1
(g105
g3
Ntp1235
Rp1236
(dp1237
g56
I1
sg109
g110
(g111
(I0
tp1238
g113
tp1239
Rp1240
(I1
(L2L
tp1241
g120
I00
S'H\xaf\xbc\x9a\xf2\xd7z>H\xaf\xbc\x9a\xf2\xd7z>'
p1242
tp1243
bsg59
(dp1244
L137183016L
g1233
ssg126
g110
(g111
(I0
tp1245
g113
tp1246
Rp1247
(I1
(L2L
L2L
tp1248
g120
I00
S'\x00\x00\x00\x00\x00\x00\x00\x00\x00\x00\x00\x00\x00\x00\x00\x00\x00\x00\x00\x00\x00\x00\xf0?\x00\x00\x00\x00\x00\x00\xf0?'
p1249
tp1250
bsg133
g110
(g111
(I0
tp1251
g113
tp1252
Rp1253
(I1
(L2L
L2L
tp1254
g120
I00
S'\x00\x00\x00\x00\x00\x00\x00\x00\x00\x00\x00\x00\x00\x00\x00\x00\x00\x00\x00\x00\x00\x00\xf0?\x00\x00\x00\x00\x00\x00\xf0?'
p1255
tp1256
bsg140
I01
sg58
g17
sbsg59
(dp1257
L137183128L
g1230
ssg58
g17
sbsg241
I2
sg242
g1
(g141
g3
Ntp1258
Rp1259
(dp1260
g56
I2
sg57
Nsg98
g110
(g111
(I0
tp1261
g113
tp1262
Rp1263
(I1
(L3L
L3L
tp1264
g120
I00
S'\x00\x00\x00\x00\x00\x00\xf0?\x00\x00\x00\x00\x00\x00\x00\x00\x00\x00\x00\x00\x00\x00\x00\x00\x00\x00\x00\x00\x00\x00\x00\x00\x00\x00\x00\x00\x00\x00\xf0?\x00\x00\x00\x00\x00\x00\x00\x00\x00\x00\x00\x00\x00\x00\x00\x00\x00\x00\x00\x00\x00\x00\x00\x00\x00\x00\x00\x00\x00\x00\xf0?'
p1265
tp1266
bsg58
g17
sg59
(dp1267
L137183128L
g1230
ssbsg59
(dp1268
L137183184L
g1227
ssg58
g17
sbsg241
I2
sg242
g171
sg59
(dp1269
L137244800L
g1
(g100
g3
Ntp1270
Rp1271
(dp1272
g56
I1
sg104
g1
(g105
g3
Ntp1273
Rp1274
(dp1275
g56
I1
sg109
g110
(g111
(I0
tp1276
g113
tp1277
Rp1278
(I1
(L2L
tp1279
g120
I00
S'H\xaf\xbc\x9a\xf2\xd7z>H\xaf\xbc\x9a\xf2\xd7z>'
p1280
tp1281
bsg59
(dp1282
L137244800L
g1271
ssg126
g110
(g111
(I0
tp1283
g113
tp1284
Rp1285
(I1
(L2L
L2L
tp1286
g120
I00
S'\x00\x00\x00\x00\x00\x00\x00\x00\x00\x00\x00\x00\x00\x00\x00\x00\x00\x00\x00\x00\x00\x00\xf0?\x00\x00\x00\x00\x00\x00\xf0?'
p1287
tp1288
bsg133
g110
(g111
(I0
tp1289
g113
tp1290
Rp1291
(I1
(L2L
L2L
tp1292
g120
I00
S'\x00\x00\x00\x00\x00\x00\x00\x00\x00\x00\x00\x00\x00\x00\x00\x00\x00\x00\x00\x00\x00\x00\xf0?\x00\x00\x00\x00\x00\x00\xf0?'
p1293
tp1294
bsg140
I01
sg58
g17
sbsg93
g1227
sg133
Nsg59
(dp1295
sg58
g17
sbssg58
g17
sbsL136479800L
g1
(g200
g3
Ntp1296
Rp1297
(dp1298
g56
I1
sg98
Nsg63
g1
(g52
g3
Ntp1299
Rp1300
(dp1301
g56
I1
sg57
Nsg58
g17
sg59
(dp1302
L136479800L
g1297
ssbsg64
g171
sg57
Nsg58
g17
sg59
(dp1303
sbsL137058904L
g790
sL137245472L
g1
(g160
g3
Ntp1304
Rp1305
(dp1306
g56
I1
sg164
I2
sg165
g1
(g160
g3
Ntp1307
Rp1308
(dp1309
g56
I1
sg164
I2
sg165
g1
(g94
g3
Ntp1310
Rp1311
(dp1312
g56
I1
sg98
Nsg57
Nsg99
g1
(g105
g3
Ntp1313
Rp1314
(dp1315
g56
I1
sg109
g110
(g111
(I0
tp1316
g113
tp1317
Rp1318
(I1
(L2L
tp1319
g120
I00
S'H\xaf\xbc\x9a\xf2\xd7z>H\xaf\xbc\x9a\xf2\xd7z>'
p1320
tp1321
bsg59
(dp1322
L137245304L
g1311
ssg126
g110
(g111
(I0
tp1323
g113
tp1324
Rp1325
(I1
(L2L
L2L
tp1326
g120
I00
S'\x00\x00\x00\x00\x00\x00\x00\x00\x00\x00\x00\x00\x00\x00\x00\x00\x00\x00\x00\x00\x00\x00\xf0?\x00\x00\x00\x00\x00\x00\xf0?'
p1327
tp1328
bsg133
g110
(g111
(I0
tp1329
g113
tp1330
Rp1331
(I1
(L2L
L2L
tp1332
g120
I00
S'\x00\x00\x00\x00\x00\x00\x00\x00\x00\x00\x00\x00\x00\x00\x00\x00\x00\x00\x00\x00\x00\x00\xf0?\x00\x00\x00\x00\x00\x00\xf0?'
p1333
tp1334
bsg140
I01
sg58
g17
sbsg59
(dp1335
L137245416L
g1308
ssg58
g17
sbsg241
I2
sg242
g1
(g141
g3
Ntp1336
Rp1337
(dp1338
g56
I2
sg57
Nsg98
g110
(g111
(I0
tp1339
g113
tp1340
Rp1341
(I1
(L3L
L3L
tp1342
g120
I00
S'\x00\x00\x00\x00\x00\x00\xf0?\x00\x00\x00\x00\x00\x00\x00\x00\x00\x00\x00\x00\x00\x00\x00\x00\x00\x00\x00\x00\x00\x00\x00\x00\x00\x00\x00\x00\x00\x00\xf0?\x00\x00\x00\x00\x00\x00\x00\x00\x00\x00\x00\x00\x00\x00\x00\x00\x00\x00\x00\x00\x00\x00\x00\x00\x00\x00\x00\x00\x00\x00\xf0?'
p1343
tp1344
bsg58
g17
sg59
(dp1345
L137245416L
g1308
ssbsg59
(dp1346
L137245472L
g1305
ssg58
g17
sbsg241
I2
sg242
g171
sg59
(dp1347
L137245584L
g1
(g100
g3
Ntp1348
Rp1349
(dp1350
g56
I1
sg104
g1
(g105
g3
Ntp1351
Rp1352
(dp1353
g56
I1
sg109
g110
(g111
(I0
tp1354
g113
tp1355
Rp1356
(I1
(L2L
tp1357
g120
I00
S'H\xaf\xbc\x9a\xf2\xd7z>H\xaf\xbc\x9a\xf2\xd7z>'
p1358
tp1359
bsg59
(dp1360
L137245584L
g1349
ssg126
g110
(g111
(I0
tp1361
g113
tp1362
Rp1363
(I1
(L2L
L2L
tp1364
g120
I00
S'\x00\x00\x00\x00\x00\x00\x00\x00\x00\x00\x00\x00\x00\x00\x00\x00\x00\x00\x00\x00\x00\x00\xf0?\x00\x00\x00\x00\x00\x00\xf0?'
p1365
tp1366
bsg133
g110
(g111
(I0
tp1367
g113
tp1368
Rp1369
(I1
(L2L
L2L
tp1370
g120
I00
S'\x00\x00\x00\x00\x00\x00\x00\x00\x00\x00\x00\x00\x00\x00\x00\x00\x00\x00\x00\x00\x00\x00\xf0?\x00\x00\x00\x00\x00\x00\xf0?'
p1371
tp1372
bsg140
I01
sg58
g17
sbsg93
g1305
sg133
Nsg59
(dp1373
sg58
g17
sbssg58
g17
sbsL137248608L
g1
(g160
g3
Ntp1374
Rp1375
(dp1376
g56
I1
sg164
I2
sg165
g1
(g160
g3
Ntp1377
Rp1378
(dp1379
g56
I1
sg164
I2
sg165
g1
(g94
g3
Ntp1380
Rp1381
(dp1382
g56
I1
sg98
Nsg57
Nsg99
g1
(g105
g3
Ntp1383
Rp1384
(dp1385
g56
I1
sg109
g110
(g111
(I0
tp1386
g113
tp1387
Rp1388
(I1
(L2L
tp1389
g120
I00
S'H\xaf\xbc\x9a\xf2\xd7z>H\xaf\xbc\x9a\xf2\xd7z>'
p1390
tp1391
bsg59
(dp1392
L137248440L
g1381
ssg126
g110
(g111
(I0
tp1393
g113
tp1394
Rp1395
(I1
(L2L
L2L
tp1396
g120
I00
S'\x00\x00\x00\x00\x00\x00\x00\x00\x00\x00\x00\x00\x00\x00\x00\x00\x00\x00\x00\x00\x00\x00\xf0?\x00\x00\x00\x00\x00\x00\xf0?'
p1397
tp1398
bsg133
g110
(g111
(I0
tp1399
g113
tp1400
Rp1401
(I1
(L2L
L2L
tp1402
g120
I00
S'\x00\x00\x00\x00\x00\x00\x00\x00\x00\x00\x00\x00\x00\x00\x00\x00\x00\x00\x00\x00\x00\x00\xf0?\x00\x00\x00\x00\x00\x00\xf0?'
p1403
tp1404
bsg140
I01
sg58
g17
sbsg59
(dp1405
L137248552L
g1378
ssg58
g17
sbsg241
I2
sg242
g1
(g141
g3
Ntp1406
Rp1407
(dp1408
g56
I2
sg57
Nsg98
g110
(g111
(I0
tp1409
g113
tp1410
Rp1411
(I1
(L3L
L3L
tp1412
g120
I00
S'\x00\x00\x00\x00\x00\x00\xf0?\x00\x00\x00\x00\x00\x00\x00\x00\x00\x00\x00\x00\x00\x00\x00\x00\x00\x00\x00\x00\x00\x00\x00\x00\x00\x00\x00\x00\x00\x00\xf0?\x00\x00\x00\x00\x00\x00\x00\x00\x00\x00\x00\x00\x00\x00\x00\x00\x00\x00\x00\x00\x00\x00\x00\x00\x00\x00\x00\x00\x00\x00\xf0?'
p1413
tp1414
bsg58
g17
sg59
(dp1415
L137248552L
g1378
ssbsg59
(dp1416
L137248608L
g1375
ssg58
g17
sbsg241
I2
sg242
g171
sg59
(dp1417
L137248720L
g1
(g100
g3
Ntp1418
Rp1419
(dp1420
g56
I1
sg104
g1
(g105
g3
Ntp1421
Rp1422
(dp1423
g56
I1
sg109
g110
(g111
(I0
tp1424
g113
tp1425
Rp1426
(I1
(L2L
tp1427
g120
I00
S'H\xaf\xbc\x9a\xf2\xd7z>H\xaf\xbc\x9a\xf2\xd7z>'
p1428
tp1429
bsg59
(dp1430
L137248720L
g1419
ssg126
g110
(g111
(I0
tp1431
g113
tp1432
Rp1433
(I1
(L2L
L2L
tp1434
g120
I00
S'\x00\x00\x00\x00\x00\x00\x00\x00\x00\x00\x00\x00\x00\x00\x00\x00\x00\x00\x00\x00\x00\x00\xf0?\x00\x00\x00\x00\x00\x00\xf0?'
p1435
tp1436
bsg133
g110
(g111
(I0
tp1437
g113
tp1438
Rp1439
(I1
(L2L
L2L
tp1440
g120
I00
S'\x00\x00\x00\x00\x00\x00\x00\x00\x00\x00\x00\x00\x00\x00\x00\x00\x00\x00\x00\x00\x00\x00\xf0?\x00\x00\x00\x00\x00\x00\xf0?'
p1441
tp1442
bsg140
I01
sg58
g17
sbsg93
g1375
sg133
Nsg59
(dp1443
sg58
g17
sbssg58
g17
sbsL137247824L
g1
(g160
g3
Ntp1444
Rp1445
(dp1446
g56
I1
sg164
I2
sg165
g1
(g160
g3
Ntp1447
Rp1448
(dp1449
g56
I1
sg164
I2
sg165
g1
(g94
g3
Ntp1450
Rp1451
(dp1452
g56
I1
sg98
Nsg57
Nsg99
g1
(g105
g3
Ntp1453
Rp1454
(dp1455
g56
I1
sg109
g110
(g111
(I0
tp1456
g113
tp1457
Rp1458
(I1
(L2L
tp1459
g120
I00
S'H\xaf\xbc\x9a\xf2\xd7z>H\xaf\xbc\x9a\xf2\xd7z>'
p1460
tp1461
bsg59
(dp1462
L137247656L
g1451
ssg126
g110
(g111
(I0
tp1463
g113
tp1464
Rp1465
(I1
(L2L
L2L
tp1466
g120
I00
S'\x00\x00\x00\x00\x00\x00\x00\x00\x00\x00\x00\x00\x00\x00\x00\x00\x00\x00\x00\x00\x00\x00\xf0?\x00\x00\x00\x00\x00\x00\xf0?'
p1467
tp1468
bsg133
g110
(g111
(I0
tp1469
g113
tp1470
Rp1471
(I1
(L2L
L2L
tp1472
g120
I00
S'\x00\x00\x00\x00\x00\x00\x00\x00\x00\x00\x00\x00\x00\x00\x00\x00\x00\x00\x00\x00\x00\x00\xf0?\x00\x00\x00\x00\x00\x00\xf0?'
p1473
tp1474
bsg140
I01
sg58
g17
sbsg59
(dp1475
L137247768L
g1448
ssg58
g17
sbsg241
I2
sg242
g1
(g141
g3
Ntp1476
Rp1477
(dp1478
g56
I2
sg57
Nsg98
g110
(g111
(I0
tp1479
g113
tp1480
Rp1481
(I1
(L3L
L3L
tp1482
g120
I00
S'\x00\x00\x00\x00\x00\x00\xf0?\x00\x00\x00\x00\x00\x00\x00\x00\x00\x00\x00\x00\x00\x00\x00\x00\x00\x00\x00\x00\x00\x00\x00\x00\x00\x00\x00\x00\x00\x00\xf0?\x00\x00\x00\x00\x00\x00\x00\x00\x00\x00\x00\x00\x00\x00\x00\x00\x00\x00\x00\x00\x00\x00\x00\x00\x00\x00\x00\x00\x00\x00\xf0?'
p1483
tp1484
bsg58
g17
sg59
(dp1485
L137247768L
g1448
ssbsg59
(dp1486
L137247824L
g1445
ssg58
g17
sbsg241
I2
sg242
g171
sg59
(dp1487
L137247936L
g1
(g100
g3
Ntp1488
Rp1489
(dp1490
g56
I1
sg104
g1
(g105
g3
Ntp1491
Rp1492
(dp1493
g56
I1
sg109
g110
(g111
(I0
tp1494
g113
tp1495
Rp1496
(I1
(L2L
tp1497
g120
I00
S'H\xaf\xbc\x9a\xf2\xd7z>H\xaf\xbc\x9a\xf2\xd7z>'
p1498
tp1499
bsg59
(dp1500
L137247936L
g1489
ssg126
g110
(g111
(I0
tp1501
g113
tp1502
Rp1503
(I1
(L2L
L2L
tp1504
g120
I00
S'\x00\x00\x00\x00\x00\x00\x00\x00\x00\x00\x00\x00\x00\x00\x00\x00\x00\x00\x00\x00\x00\x00\xf0?\x00\x00\x00\x00\x00\x00\xf0?'
p1505
tp1506
bsg133
g110
(g111
(I0
tp1507
g113
tp1508
Rp1509
(I1
(L2L
L2L
tp1510
g120
I00
S'\x00\x00\x00\x00\x00\x00\x00\x00\x00\x00\x00\x00\x00\x00\x00\x00\x00\x00\x00\x00\x00\x00\xf0?\x00\x00\x00\x00\x00\x00\xf0?'
p1511
tp1512
bsg140
I01
sg58
g17
sbsg93
g1445
sg133
Nsg59
(dp1513
sg58
g17
sbssg58
g17
sbsL137113840L
g1
(g160
g3
Ntp1514
Rp1515
(dp1516
g56
I1
sg164
I2
sg165
g1
(g160
g3
Ntp1517
Rp1518
(dp1519
g56
I1
sg164
I2
sg165
g1
(g94
g3
Ntp1520
Rp1521
(dp1522
g56
I1
sg98
Nsg57
Nsg99
g1
(g105
g3
Ntp1523
Rp1524
(dp1525
g56
I1
sg109
g110
(g111
(I0
tp1526
g113
tp1527
Rp1528
(I1
(L2L
tp1529
g120
I00
S'H\xaf\xbc\x9a\xf2\xd7z>H\xaf\xbc\x9a\xf2\xd7z>'
p1530
tp1531
bsg59
(dp1532
L137113672L
g1521
ssg126
g110
(g111
(I0
tp1533
g113
tp1534
Rp1535
(I1
(L2L
L2L
tp1536
g120
I00
S'\x00\x00\x00\x00\x00\x00\x00\x00\x00\x00\x00\x00\x00\x00\x00\x00\x00\x00\x00\x00\x00\x00\xf0?\x00\x00\x00\x00\x00\x00\xf0?'
p1537
tp1538
bsg133
g110
(g111
(I0
tp1539
g113
tp1540
Rp1541
(I1
(L2L
L2L
tp1542
g120
I00
S'\x00\x00\x00\x00\x00\x00\x00\x00\x00\x00\x00\x00\x00\x00\x00\x00\x00\x00\x00\x00\x00\x00\xf0?\x00\x00\x00\x00\x00\x00\xf0?'
p1543
tp1544
bsg140
I01
sg58
g17
sbsg59
(dp1545
L137113784L
g1518
ssg58
g17
sbsg241
I2
sg242
g1
(g141
g3
Ntp1546
Rp1547
(dp1548
g56
I2
sg57
Nsg98
g110
(g111
(I0
tp1549
g113
tp1550
Rp1551
(I1
(L3L
L3L
tp1552
g120
I00
S'\x00\x00\x00\x00\x00\x00\xf0?\x00\x00\x00\x00\x00\x00\x00\x00\x00\x00\x00\x00\x00\x00\x00\x00\x00\x00\x00\x00\x00\x00\x00\x00\x00\x00\x00\x00\x00\x00\xf0?\x00\x00\x00\x00\x00\x00\x00\x00\x00\x00\x00\x00\x00\x00\x00\x00\x00\x00\x00\x00\x00\x00\x00\x00\x00\x00\x00\x00\x00\x00\xf0?'
p1553
tp1554
bsg58
g17
sg59
(dp1555
L137113784L
g1518
ssbsg59
(dp1556
L137113840L
g1515
ssg58
g17
sbsg241
I2
sg242
g171
sg59
(dp1557
L137113952L
g1
(g100
g3
Ntp1558
Rp1559
(dp1560
g56
I1
sg104
g1
(g105
g3
Ntp1561
Rp1562
(dp1563
g56
I1
sg109
g110
(g111
(I0
tp1564
g113
tp1565
Rp1566
(I1
(L2L
tp1567
g120
I00
S'H\xaf\xbc\x9a\xf2\xd7z>H\xaf\xbc\x9a\xf2\xd7z>'
p1568
tp1569
bsg59
(dp1570
L137113952L
g1559
ssg126
g110
(g111
(I0
tp1571
g113
tp1572
Rp1573
(I1
(L2L
L2L
tp1574
g120
I00
S'\x00\x00\x00\x00\x00\x00\x00\x00\x00\x00\x00\x00\x00\x00\x00\x00\x00\x00\x00\x00\x00\x00\xf0?\x00\x00\x00\x00\x00\x00\xf0?'
p1575
tp1576
bsg133
g110
(g111
(I0
tp1577
g113
tp1578
Rp1579
(I1
(L2L
L2L
tp1580
g120
I00
S'\x00\x00\x00\x00\x00\x00\x00\x00\x00\x00\x00\x00\x00\x00\x00\x00\x00\x00\x00\x00\x00\x00\xf0?\x00\x00\x00\x00\x00\x00\xf0?'
p1581
tp1582
bsg140
I01
sg58
g17
sbsg93
g1515
sg133
Nsg59
(dp1583
sg58
g17
sbssg58
g17
sbsL137308536L
g1
(g160
g3
Ntp1584
Rp1585
(dp1586
g56
I1
sg164
I2
sg165
g1
(g160
g3
Ntp1587
Rp1588
(dp1589
g56
I1
sg164
I2
sg165
g1
(g94
g3
Ntp1590
Rp1591
(dp1592
g56
I1
sg98
Nsg57
Nsg99
g1
(g105
g3
Ntp1593
Rp1594
(dp1595
g56
I1
sg109
g110
(g111
(I0
tp1596
g113
tp1597
Rp1598
(I1
(L2L
tp1599
g120
I00
S'H\xaf\xbc\x9a\xf2\xd7z>H\xaf\xbc\x9a\xf2\xd7z>'
p1600
tp1601
bsg59
(dp1602
L137308368L
g1591
ssg126
g110
(g111
(I0
tp1603
g113
tp1604
Rp1605
(I1
(L2L
L2L
tp1606
g120
I00
S'\x00\x00\x00\x00\x00\x00\x00\x00\x00\x00\x00\x00\x00\x00\x00\x00\x00\x00\x00\x00\x00\x00\xf0?\x00\x00\x00\x00\x00\x00\xf0?'
p1607
tp1608
bsg133
g110
(g111
(I0
tp1609
g113
tp1610
Rp1611
(I1
(L2L
L2L
tp1612
g120
I00
S'\x00\x00\x00\x00\x00\x00\x00\x00\x00\x00\x00\x00\x00\x00\x00\x00\x00\x00\x00\x00\x00\x00\xf0?\x00\x00\x00\x00\x00\x00\xf0?'
p1613
tp1614
bsg140
I01
sg58
g17
sbsg59
(dp1615
L137308480L
g1588
ssg58
g17
sbsg241
I2
sg242
g1
(g141
g3
Ntp1616
Rp1617
(dp1618
g56
I2
sg57
Nsg98
g110
(g111
(I0
tp1619
g113
tp1620
Rp1621
(I1
(L3L
L3L
tp1622
g120
I00
S'\x00\x00\x00\x00\x00\x00\xf0?\x00\x00\x00\x00\x00\x00\x00\x00\x00\x00\x00\x00\x00\x00\x00\x00\x00\x00\x00\x00\x00\x00\x00\x00\x00\x00\x00\x00\x00\x00\xf0?\x00\x00\x00\x00\x00\x00\x00\x00\x00\x00\x00\x00\x00\x00\x00\x00\x00\x00\x00\x00\x00\x00\x00\x00\x00\x00\x00\x00\x00\x00\xf0?'
p1623
tp1624
bsg58
g17
sg59
(dp1625
L137308480L
g1588
ssbsg59
(dp1626
L137308536L
g1585
ssg58
g17
sbsg241
I2
sg242
g171
sg59
(dp1627
L137308648L
g1
(g100
g3
Ntp1628
Rp1629
(dp1630
g56
I1
sg104
g1
(g105
g3
Ntp1631
Rp1632
(dp1633
g56
I1
sg109
g110
(g111
(I0
tp1634
g113
tp1635
Rp1636
(I1
(L2L
tp1637
g120
I00
S'H\xaf\xbc\x9a\xf2\xd7z>H\xaf\xbc\x9a\xf2\xd7z>'
p1638
tp1639
bsg59
(dp1640
L137308648L
g1629
ssg126
g110
(g111
(I0
tp1641
g113
tp1642
Rp1643
(I1
(L2L
L2L
tp1644
g120
I00
S'\x00\x00\x00\x00\x00\x00\x00\x00\x00\x00\x00\x00\x00\x00\x00\x00\x00\x00\x00\x00\x00\x00\xf0?\x00\x00\x00\x00\x00\x00\xf0?'
p1645
tp1646
bsg133
g110
(g111
(I0
tp1647
g113
tp1648
Rp1649
(I1
(L2L
L2L
tp1650
g120
I00
S'\x00\x00\x00\x00\x00\x00\x00\x00\x00\x00\x00\x00\x00\x00\x00\x00\x00\x00\x00\x00\x00\x00\xf0?\x00\x00\x00\x00\x00\x00\xf0?'
p1651
tp1652
bsg140
I01
sg58
g17
sbsg93
g1585
sg133
Nsg59
(dp1653
sg58
g17
sbssg58
g17
sbsL137180832L
g1
(g160
g3
Ntp1654
Rp1655
(dp1656
g56
I1
sg164
I2
sg165
g1
(g160
g3
Ntp1657
Rp1658
(dp1659
g56
I1
sg164
I2
sg165
g1
(g94
g3
Ntp1660
Rp1661
(dp1662
g56
I1
sg98
Nsg57
Nsg99
g1
(g105
g3
Ntp1663
Rp1664
(dp1665
g56
I1
sg109
g110
(g111
(I0
tp1666
g113
tp1667
Rp1668
(I1
(L2L
tp1669
g120
I00
S'H\xaf\xbc\x9a\xf2\xd7z>H\xaf\xbc\x9a\xf2\xd7z>'
p1670
tp1671
bsg59
(dp1672
L137180664L
g1661
ssg126
g110
(g111
(I0
tp1673
g113
tp1674
Rp1675
(I1
(L2L
L2L
tp1676
g120
I00
S'\x00\x00\x00\x00\x00\x00\x00\x00\x00\x00\x00\x00\x00\x00\x00\x00\x00\x00\x00\x00\x00\x00\xf0?\x00\x00\x00\x00\x00\x00\xf0?'
p1677
tp1678
bsg133
g110
(g111
(I0
tp1679
g113
tp1680
Rp1681
(I1
(L2L
L2L
tp1682
g120
I00
S'\x00\x00\x00\x00\x00\x00\x00\x00\x00\x00\x00\x00\x00\x00\x00\x00\x00\x00\x00\x00\x00\x00\xf0?\x00\x00\x00\x00\x00\x00\xf0?'
p1683
tp1684
bsg140
I01
sg58
g17
sbsg59
(dp1685
L137180776L
g1658
ssg58
g17
sbsg241
I2
sg242
g1
(g141
g3
Ntp1686
Rp1687
(dp1688
g56
I2
sg57
Nsg98
g110
(g111
(I0
tp1689
g113
tp1690
Rp1691
(I1
(L3L
L3L
tp1692
g120
I00
S'\x00\x00\x00\x00\x00\x00\xf0?\x00\x00\x00\x00\x00\x00\x00\x00\x00\x00\x00\x00\x00\x00\x00\x00\x00\x00\x00\x00\x00\x00\x00\x00\x00\x00\x00\x00\x00\x00\xf0?\x00\x00\x00\x00\x00\x00\x00\x00\x00\x00\x00\x00\x00\x00\x00\x00\x00\x00\x00\x00\x00\x00\x00\x00\x00\x00\x00\x00\x00\x00\xf0?'
p1693
tp1694
bsg58
g17
sg59
(dp1695
L137180776L
g1658
ssbsg59
(dp1696
L137180832L
g1655
ssg58
g17
sbsg241
I2
sg242
g171
sg59
(dp1697
L137180944L
g1
(g100
g3
Ntp1698
Rp1699
(dp1700
g56
I1
sg104
g1
(g105
g3
Ntp1701
Rp1702
(dp1703
g56
I1
sg109
g110
(g111
(I0
tp1704
g113
tp1705
Rp1706
(I1
(L2L
tp1707
g120
I00
S'H\xaf\xbc\x9a\xf2\xd7z>H\xaf\xbc\x9a\xf2\xd7z>'
p1708
tp1709
bsg59
(dp1710
L137180944L
g1699
ssg126
g110
(g111
(I0
tp1711
g113
tp1712
Rp1713
(I1
(L2L
L2L
tp1714
g120
I00
S'\x00\x00\x00\x00\x00\x00\x00\x00\x00\x00\x00\x00\x00\x00\x00\x00\x00\x00\x00\x00\x00\x00\xf0?\x00\x00\x00\x00\x00\x00\xf0?'
p1715
tp1716
bsg133
g110
(g111
(I0
tp1717
g113
tp1718
Rp1719
(I1
(L2L
L2L
tp1720
g120
I00
S'\x00\x00\x00\x00\x00\x00\x00\x00\x00\x00\x00\x00\x00\x00\x00\x00\x00\x00\x00\x00\x00\x00\xf0?\x00\x00\x00\x00\x00\x00\xf0?'
p1721
tp1722
bsg140
I01
sg58
g17
sbsg93
g1655
sg133
Nsg59
(dp1723
sg58
g17
sbssg58
g17
sbssg58
g17
sbsg64
g503
sg567
Nsg59
(dp1724
L136959648L
g1
(g160
g3
Ntp1725
Rp1726
(dp1727
g56
I2
sg164
I2
sg165
g168
sg241
I2
sg242
g1
(g152
g3
Ntp1728
Rp1729
(dp1730
g56
I1
sg98
Nsg156
g143
sg57
Nsg157
(I0
F0.05555555555555555
tp1731
sg58
g17
sg59
(dp1732
L136959648L
g1726
ssbsg59
(dp1733
sg58
g17
sbsL136560256L
g1
(g160
g3
Ntp1734
Rp1735
(dp1736
g56
I2
sg164
I2
sg165
g168
sg241
I2
sg242
g1
(g152
g3
Ntp1737
Rp1738
(dp1739
g56
I1
sg98
Nsg156
g143
sg57
Nsg157
(I0
F-0.05555555555555555
tp1740
sg58
g17
sg59
(dp1741
L136560256L
g1735
ssbsg59
(dp1742
sg58
g17
sbsL136961496L
g1
(g160
g3
Ntp1743
Rp1744
(dp1745
g56
I2
sg164
I2
sg165
g168
sg241
I2
sg242
g1
(g152
g3
Ntp1746
Rp1747
(dp1748
g56
I1
sg98
Nsg156
g143
sg57
Nsg157
(I0
F-0.05555555555555555
tp1749
sg58
g17
sg59
(dp1750
L136961496L
g1744
ssbsg59
(dp1751
sg58
g17
sbsL136960712L
g162
sL136910048L
g1
(g160
g3
Ntp1752
Rp1753
(dp1754
g56
I2
sg164
I2
sg165
g168
sg241
I2
sg242
g1
(g152
g3
Ntp1755
Rp1756
(dp1757
g56
I1
sg98
Nsg156
g143
sg57
Nsg157
(I0
F0.05555555555555555
tp1758
sg58
g17
sg59
(dp1759
L136910048L
g1753
ssbsg59
(dp1760
sg58
g17
sbsL136481424L
g1
(g160
g3
Ntp1761
Rp1762
(dp1763
g56
I2
sg164
I2
sg165
g168
sg241
I2
sg242
g1
(g152
g3
Ntp1764
Rp1765
(dp1766
g56
I1
sg98
Nsg156
g143
sg57
Nsg157
(I0
F0.05555555555555555
tp1767
sg58
g17
sg59
(dp1768
L136481424L
g1762
ssbsg59
(dp1769
sg58
g17
sbsL136958696L
g1
(g160
g3
Ntp1770
Rp1771
(dp1772
g56
I2
sg164
I2
sg165
g168
sg241
I2
sg242
g1
(g152
g3
Ntp1773
Rp1774
(dp1775
g56
I1
sg98
Nsg156
g143
sg57
Nsg157
(I0
F-0.05555555555555555
tp1776
sg58
g17
sg59
(dp1777
L136958696L
g1771
ssbsg59
(dp1778
sg58
g17
sbsL136959928L
g1
(g160
g3
Ntp1779
Rp1780
(dp1781
g56
I2
sg164
I2
sg165
g168
sg241
I2
sg242
g1
(g152
g3
Ntp1782
Rp1783
(dp1784
g56
I1
sg98
Nsg156
g143
sg57
Nsg157
(I0
F0.05555555555555555
tp1785
sg58
g17
sg59
(dp1786
L136959928L
g1780
ssbsg59
(dp1787
sg58
g17
sbssg58
g17
sbsg241
I2
sg242
g154
sg59
(dp1788
sg58
g17
sbssbsL136959872L
g1783
sL136560200L
g1738
sL136480752L
g1765
sL137057280L
g618
sL136909768L
g573
sL136959704L
g1729
sL137057504L
g636
sL136910832L
g1756
sL48762664L
g102
sL137013008L
g627
sL136481480L
g600
sL137015080L
g609
sL136911672L
g591
sL137058456L
g785
sL136961384L
g1747
sL136959480L
g1774
sL136909096L
g582
ssbsg133
g110
(g111
(I0
tp1789
g113
tp1790
Rp1791
(I1
(L2L
L2L
tp1792
g120
I00
S'\x00\x00\x00\x00\x00\x00\x00\x00\x00\x00\x00\x00\x00\x00\x00\x00\x00\x00\x00\x00\x00\x00\x84@\x00\x00\x00\x00\x00\x00~@'
p1793
tp1794
bsg59
(dp1795
L48762720L
g96
ssg58
g17
sbsg59
(dp1796
L136415328L
g174
ssg58
g17
sbsS'_capstyle'
p1797
Vbutt
p1798
sS'_url'
p1799
NsS'_axes'
p1800
Nsg41
Nsbsg49
Nsg75
NsV_restore_to_pylab
p1801
I01
sS'images'
p1802
(lp1803
sS'_suptitle'
p1804
NsS'dpi_scale_trans'
p1805
g143
sS'number'
p1806
I1
sS'callbacks'
p1807
g1
(cmatplotlib.cbook
CallbackRegistry
p1808
g3
Ntp1809
Rp1810
sg80
NsS'_tight'
p1811
I00
sg73
I01
sS'bbox'
p1812
g102
sg65
Nsg89
I0
sS'patches'
p1813
(lp1814
sS'legends'
p1815
(lp1816
sS'suppressComposite'
p1817
Nsg90
I00
sg92
NsS'_axstack'
p1818
g1
(cmatplotlib.figure
AxesStack
p1819
g3
Ntp1820
Rp1821
(dp1822
S'_default'
p1823
NsS'_elements'
p1824
(lp1825
(((I1
I1
I1
tp1826
(ttp1827
(I1
g1
(cmatplotlib.axes._subplots
_PicklableSubplotClassConstructor
p1828
g3
Ntp1829
Rp1830
(cmatplotlib.axes._axes
Axes
p1831
tp1832
Rp1833
(dp1834
S'transLimits'
p1835
g539
sS'_get_patches_for_fill'
p1836
g1
(cmatplotlib.axes._base
_process_plot_var_args
p1837
g3
Ntp1838
Rp1839
(dp1840
Vaxes
p1841
g1833
sVcommand
p1842
Vfill
p1843
sbsS'_xcid'
p1844
I1
sg7
V
p1845
sS'legend_'
p1846
Nsg20
(lp1847
sS'_frameon'
p1848
I01
sS'_autoscaleYon'
p1849
I01
sg22
I01
sg23
(lp1850
sg28
I01
sS'tables'
p1851
(lp1852
sg1813
(lp1853
sS'title'
p1854
g1
(cmatplotlib.text
Text
p1855
g3
Ntp1856
Rp1857
(dp1858
g7
g17
sg9
I01
sg12
g15
sg18
NsS'_fontproperties'
p1859
g1
(cmatplotlib.font_manager
FontProperties
p1860
g3
Ntp1861
Rp1862
(dp1863
S'_family'
p1864
(lp1865
Vsans-serif
p1866
asS'_file'
p1867
NsS'_variant'
p1868
Vnormal
p1869
sS'_slant'
p1870
g1869
sS'_size'
p1871
Vlarge
p1872
sS'_weight'
p1873
I400
sS'_stretch'
p1874
g1869
sbsg49
Nsg25
g26
sS'_multialignment'
p1875
Nsg28
I01
sg31
Nsg63
F1.0
sg64
F0.5
sg32
Nsg19
Nsg35
I00
sg36
I00
sg37
(dp1876
sS'_renderer'
p1877
Nsg39
I00
sg1800
g1833
sg75
Nsg1799
NsS'_rotation_mode'
p1878
Nsg40
Nsg80
Nsg73
I01
sS'_verticalalignment'
p1879
Vbaseline
p1880
sS'_text'
p1881
V
p1882
sS'_bbox_patch'
p1883
Nsg65
Nsg89
I0
sS'_rotation'
p1884
Nsg90
I01
sg92
NsS'_linespacing'
p1885
F1.2
sg93
g782
sS'_usetex'
p1886
NsS'_wrap'
p1887
I00
sg50
NsS'_color'
p1888
Vk
p1889
sS'_horizontalalignment'
p1890
Vcenter
p1891
sg41
NsbsS'_current_image'
p1892
NsS'mouseover_set'
p1893
c__builtin__
set
p1894
((lp1895
tp1896
Rp1897
sg19
NsS'_cursorProps'
p1898
(I1
(F0.0
F0.0
F0.0
F1.0
tp1899
tp1900
sS'numRows'
p1901
I1
sS'collections'
p1902
(lp1903
sg1800
g1833
sg37
(dp1904
sg39
I00
sS'containers'
p1905
(lp1906
sg36
I00
sg75
NsS'_get_lines'
p1907
g1
(g1837
g3
Ntp1908
Rp1909
(dp1910
g1841
g1833
sg1842
Vplot
p1911
sbsS'_aspect'
p1912
Vauto
p1913
sS'fmt_xdata'
p1914
Nsg1807
g1
(g1808
g3
Ntp1915
Rp1916
sg80
NsS'_anchor'
p1917
VC
p1918
sg73
I01
sg1812
g174
sS'ignore_existing_data_limits'
p1919
I00
sg65
Nsg89
I0
sg90
I00
sS'_left_title'
p1920
g1
(g1855
g3
Ntp1921
Rp1922
(dp1923
g7
g17
sg9
I01
sg12
g15
sg18
Nsg1859
g1
(g1860
g3
Ntp1924
Rp1925
(dp1926
g1864
g1865
sg1867
Nsg1868
g1869
sg1870
g1869
sg1871
g1872
sg1873
I400
sg1874
g1869
sbsg49
Nsg25
g26
sg1875
Nsg28
I01
sg31
Nsg63
F1.0
sg64
F0.0
sg32
Nsg19
Nsg35
I00
sg36
I00
sg37
(dp1927
sg1877
Nsg39
I00
sg1800
g1833
sg75
Nsg1799
Nsg1878
Nsg40
Nsg80
Nsg73
I01
sg1879
g1880
sg1881
V
p1928
sg1883
Nsg65
Nsg89
I0
sg1884
Nsg90
I01
sg92
Nsg1885
F1.2
sg93
g790
sg1886
Nsg1887
I00
sg50
Nsg1888
g1889
sg1890
Vleft
p1929
sg41
NsbsS'_right_title'
p1930
g1
(g1855
g3
Ntp1931
Rp1932
(dp1933
g7
g17
sg9
I01
sg12
g15
sg18
Nsg1859
g1
(g1860
g3
Ntp1934
Rp1935
(dp1936
g1864
g1865
sg1867
Nsg1868
g1869
sg1870
g1869
sg1871
g1872
sg1873
I400
sg1874
g1869
sbsg49
Nsg25
g26
sg1875
Nsg28
I01
sg31
Nsg63
F1.0
sg64
F1.0
sg32
Nsg19
Nsg35
I00
sg36
I00
sg37
(dp1937
sg1877
Nsg39
I00
sg1800
g1833
sg75
Nsg1799
Nsg1878
Nsg40
Nsg80
Nsg73
I01
sg1879
g1880
sg1881
V
p1938
sg1883
Nsg65
Nsg89
I0
sg1884
Nsg90
I01
sg92
Nsg1885
F1.2
sg93
g794
sg1886
Nsg1887
I00
sg50
Nsg1888
g1889
sg1890
Vright
p1939
sg41
NsbsS'transScale'
p1940
g507
sg93
NsS'axison'
p1941
I01
sS'patch'
p1942
g1
(g43
g3
Ntp1943
Rp1944
(dp1945
g7
g17
sg47
F1.0
sg48
I01
sg12
g15
sg9
I01
sg18
Nsg49
Nsg25
g26
sg50
Nsg28
I01
sg51
g1
(g52
g3
Ntp1946
Rp1947
(dp1948
g56
I1
sg57
Nsg58
g17
sg59
(dp1949
sbsg61
(F0.0
F0.0
F0.0
F0.0
tp1950
sg31
Nsg63
F0.0
sg64
F0.0
sg65
Nsg32
Nsg19
Nsg35
I00
sg36
I00
sg37
(dp1951
sg67
g1588
sg39
I00
sg72
Nsg73
I01
sg74
F0.0
sg75
Nsg76
F1.0
sg40
Nsg77
I01
sg78
g88
sg80
Nsg81
(F1.0
F1.0
F1.0
F1.0
tp1952
sg83
g84
sg85
g86
sg87
VNone
p1953
sg89
I0
sg90
I01
sg91
F0.0
sg92
Nsg93
g171
sg1797
g1798
sg1799
Nsg1800
Nsg41
NsbsS'viewLim'
p1954
g515
sg25
g26
sS'_subplotspec'
p1955
g1
(cmatplotlib.gridspec
SubplotSpec
p1956
g3
Ntp1957
Rp1958
(dp1959
S'num1'
p1960
I0
sS'num2'
p1961
NsS'_gridspec'
p1962
g1
(cmatplotlib.gridspec
GridSpec
p1963
g3
Ntp1964
Rp1965
(dp1966
S'_nrows'
p1967
I1
sS'right'
p1968
NsS'_col_width_ratios'
p1969
NsS'bottom'
p1970
NsS'top'
p1971
NsS'wspace'
p1972
NsS'_ncols'
p1973
I1
sS'hspace'
p1974
NsS'_row_height_ratios'
p1975
NsS'left'
p1976
NsbsbsS'_adjustable'
p1977
Vbox
p1978
sg12
g15
sS'titleOffsetTrans'
p1979
g785
sS'_yaxis_transform'
p1980
g500
sS'_gridOn'
p1981
I00
sg18
NsS'colNum'
p1982
I0
sg49
Nsg1802
(lp1983
sS'_autoscaleXon'
p1984
I01
sS'_xmargin'
p1985
F0.0
sS'rowNum'
p1986
I0
sS'_position'
p1987
g177
sS'_rasterization_zorder'
p1988
NsS'_cachedRenderer'
p1989
NsS'_navigate'
p1990
I01
sg31
NsS'_originalPosition'
p1991
g1
(g105
g3
Ntp1992
Rp1993
(dp1994
g56
I1
sg109
g110
(g111
(I0
tp1995
g113
tp1996
Rp1997
(I1
(L2L
tp1998
g120
I00
S'H\xaf\xbc\x9a\xf2\xd7z>H\xaf\xbc\x9a\xf2\xd7z>'
p1999
tp2000
bsg59
(dp2001
sg126
g110
(g111
(I0
tp2002
g113
tp2003
Rp2004
(I1
(L2L
L2L
tp2005
g120
I00
S'\x00\x00\x00\x00\x00\x00\xc0?\x98\x99\x99\x99\x99\x99\xb9?\xcd\xcc\xcc\xcc\xcc\xcc\xec?\xcd\xcc\xcc\xcc\xcc\xcc\xec?'
p2006
tp2007
bsg133
g110
(g111
(I0
tp2008
g113
tp2009
Rp2010
(I1
(L2L
L2L
tp2011
g120
I00
S'\x00\x00\x00\x00\x00\x00\xc0?\x98\x99\x99\x99\x99\x99\xb9?\xcd\xcc\xcc\xcc\xcc\xcc\xec?\xcd\xcc\xcc\xcc\xcc\xcc\xec?'
p2012
tp2013
bsg140
I01
sg58
g17
sbsg32
NsS'_xaxis_transform'
p2014
g168
sg35
I00
sS'figbox'
p2015
g177
sS'xaxis'
p2016
g1
(cmatplotlib.axis
XAxis
p2017
g3
Ntp2018
Rp2019
(dp2020
g7
g17
sS'major'
p2021
g1
(cmatplotlib.axis
Ticker
p2022
g3
Ntp2023
Rp2024
(dp2025
S'locator'
p2026
g1
(cmatplotlib.ticker
AutoLocator
p2027
g3
Ntp2028
Rp2029
(dp2030
S'_symmetric'
p2031
I00
sS'_nbins'
p2032
I9
sS'_steps'
p2033
(lp2034
I1
aI2
aI5
aI10
asS'_prune'
p2035
NsS'_integer'
p2036
I00
sS'_trim'
p2037
I01
sS'axis'
p2038
g2019
sbsS'formatter'
p2039
g1
(cmatplotlib.ticker
ScalarFormatter
p2040
g3
Ntp2041
Rp2042
(dp2043
S'_powerlimits'
p2044
(lp2045
I-7
aI7
asS'orderOfMagnitude'
p2046
I0
sS'_useMathText'
p2047
I00
sS'format'
p2048
g17
sS'_useLocale'
p2049
I00
sS'_useOffset'
p2050
I01
sS'offset'
p2051
I0
sg1886
I00
sS'_scientific'
p2052
I01
sg2038
g2019
sbsbsS'isDefault_label'
p2053
I01
sS'_scale'
p2054
g1
(cmatplotlib.scale
LinearScale
p2055
g3
Ntp2056
Rp2057
sg12
g15
sg9
I01
sS'_gridOnMinor'
p2058
I00
sg18
Nsg49
NsS'_smart_bounds'
p2059
I00
sg25
g26
sg28
I01
sg31
NsS'offsetText'
p2060
g1
(g1855
g3
Ntp2061
Rp2062
(dp2063
g7
g17
sg9
I01
sg12
g15
sg18
Nsg1859
g1
(g1860
g3
Ntp2064
Rp2065
(dp2066
g1864
(lp2067
g1866
asg1867
Nsg1868
g1869
sg1870
g1869
sg1871
Vmedium
p2068
sg1873
I400
sg1874
g1869
sbsg49
Nsg25
g26
sg1875
Nsg28
I01
sg31
Nsg63
I0
sg64
I1
sg32
Nsg19
Nsg35
I00
sg36
I00
sg37
(dp2069
sg1877
Nsg39
I00
sg1800
Nsg75
Nsg1799
Nsg1878
Nsg40
Nsg80
Nsg73
I01
sg1879
Vtop
p2070
sg1881
V
p2071
sg1883
Nsg65
Nsg89
I0
sg1884
Nsg90
I01
sg92
Nsg1885
F1.2
sg93
g282
sg1886
Nsg1887
I00
sg50
Nsg1888
g1889
sg1890
Vright
p2072
sg41
Nsbsg32
Nsg19
NsS'label'
p2073
g1
(g1855
g3
Ntp2074
Rp2075
(dp2076
g7
g17
sg9
I01
sg12
g15
sg18
Nsg1859
g1
(g1860
g3
Ntp2077
Rp2078
(dp2079
g1864
(lp2080
g1866
asg1867
Nsg1868
g1869
sg1870
g1869
sg1871
g2068
sg1873
I400
sg1874
g1869
sbsg49
Nsg25
g26
sg1875
Nsg28
I01
sg31
Nsg63
I0
sg64
F0.5
sg32
Nsg19
Nsg35
I00
sg36
I00
sg37
(dp2081
sg1877
Nsg39
I00
sg1800
Nsg75
Nsg1799
Nsg1878
Nsg40
Nsg80
Nsg73
I01
sg1879
Vtop
p2082
sg1881
V
p2083
sg1883
Nsg65
Nsg89
I0
sg1884
Nsg90
I01
sg92
Nsg1885
F1.2
sg93
g1297
sg1886
Nsg1887
I00
sg50
Nsg1888
g1889
sg1890
Vcenter
p2084
sg41
Nsbsg35
I00
sS'isDefault_majfmt'
p2085
I01
sg36
I00
sg37
(dp2086
sS'units'
p2087
Nsg39
I00
sS'minor'
p2088
g1
(g2022
g3
Ntp2089
Rp2090
(dp2091
g2026
g1
(cmatplotlib.ticker
NullLocator
p2092
g3
Ntp2093
Rp2094
(dp2095
g2038
g2019
sbsg2039
g1
(cmatplotlib.ticker
NullFormatter
p2096
g3
Ntp2097
Rp2098
(dp2099
g2038
g2019
sbsbsg1800
g1833
sS'_major_tick_kw'
p2100
(dp2101
VgridOn
p2102
I00
ssS'isDefault_minloc'
p2103
I01
sg75
g1193
sg40
NsS'_gridOnMajor'
p2104
I00
sS'_lastNumMinorTicks'
p2105
I1
sS'labelpad'
p2106
F5.0
sS'majorTicks'
p2107
(lp2108
g1
(cmatplotlib.axis
XTick
p2109
g3
Ntp2110
Rp2111
(dp2112
g7
g17
sg47
F0.5
sg12
g15
sS'tick1On'
p2113
I01
sg9
I01
sg18
Nsg89
I0
sg49
NsS'_pad'
p2114
F4.0
sS'_labelcolor'
p2115
g1889
sS'gridOn'
p2116
I00
sg1871
F4.0
sg25
g26
sS'_tickdir'
p2117
Vin
p2118
sg2073
g1
(g1855
g3
Ntp2119
Rp2120
(dp2121
g7
g17
sg9
I01
sg12
g15
sg18
Nsg1859
g1
(g1860
g3
Ntp2122
Rp2123
(dp2124
g1864
(lp2125
g1866
asg1867
Nsg1868
g1869
sg1870
g1869
sg1871
g2068
sg1873
I400
sg1874
g1869
sbsg49
Nsg25
g26
sg1875
Nsg28
I01
sg31
Nsg63
I0
sg64
I0
sg32
Nsg19
Nsg35
I00
sg36
I00
sg37
(dp2126
sg1877
Nsg39
I00
sg1800
Nsg75
Nsg1799
Nsg1878
Nsg40
Nsg80
Nsg73
I01
sg1879
Vtop
p2127
sg1881
V
p2128
sg1883
Nsg65
Nsg89
I0
sg1884
Nsg90
I01
sg92
Nsg1885
F1.2
sg93
g1771
sg1886
Nsg1887
I00
sg50
Nsg1888
g1889
sg1890
Vcenter
p2129
sg41
Nsbsg28
I01
sg31
NsS'label2On'
p2130
I00
sg32
Nsg19
NsS'tick2On'
p2131
I01
sg35
I00
sg36
I00
sg37
(dp2132
sS'_tickmarkers'
p2133
(I2
I3
tp2134
sg39
I00
sS'_zorder'
p2135
F2.01
sg1800
g1833
sS'label1On'
p2136
I01
sg75
g1559
sg1799
NsS'label1'
p2137
g2120
sS'label2'
p2138
g1
(g1855
g3
Ntp2139
Rp2140
(dp2141
g7
g17
sg9
I01
sg12
g15
sg18
Nsg1859
g1
(g1860
g3
Ntp2142
Rp2143
(dp2144
g1864
(lp2145
g1866
asg1867
Nsg1868
g1869
sg1870
g1869
sg1871
g2068
sg1873
I400
sg1874
g1869
sbsg49
Nsg25
g26
sg1875
Nsg28
I01
sg31
Nsg63
I1
sg64
I0
sg32
Nsg19
Nsg35
I00
sg36
I00
sg37
(dp2146
sg1877
Nsg39
I00
sg1800
Nsg75
Nsg1799
Nsg1878
Nsg40
Nsg80
Nsg73
I01
sg1879
Vbottom
p2147
sg1881
V
p2148
sg1883
Nsg65
Nsg89
I0
sg1884
Nsg90
I01
sg92
Nsg1885
F1.2
sg93
g1726
sg1886
Nsg1887
I00
sg50
Nsg1888
g1889
sg1890
Vcenter
p2149
sg41
Nsbsg80
NsS'_loc'
p2150
I0
sg73
I01
sg65
NsS'_base_pad'
p2151
F4.0
sS'tick1line'
p2152
g1
(g2
g3
Ntp2153
Rp2154
(dp2155
g7
g17
sg9
I01
sg10
g11
sg12
g15
sS'_dashcapstyle'
p2156
Vbutt
p2157
sS'_linestyles'
p2158
Nsg18
Nsg49
Nsg25
g26
sS'_solidjoinstyle'
p2159
Vround
p2160
sg28
I01
sS'_x_filled'
p2161
Nsg31
Nsg63
Nsg64
Nsg65
Nsg32
Nsg19
Nsg35
I00
sS'_markevery'
p2162
Nsg36
I00
sg37
(dp2163
sS'verticalOffset'
p2164
Nsg39
I00
sS'_subslice'
p2165
I00
sg1800
NsS'_transformed_path'
p2166
NsS'_markeredgewidth'
p2167
F0.5
sS'_markerfacecolor'
p2168
Vauto
p2169
sS'_dashSeq'
p2170
Nsg1888
g1889
sS'_marker'
p2171
g1
(cmatplotlib.markers
MarkerStyle
p2172
g3
Ntp2173
Rp2174
(dp2175
g2171
I2
sS'_alt_path'
p2176
NsS'_snap_threshold'
p2177
F1.0
sg93
g1
(g141
g3
Ntp2178
Rp2179
(dp2180
g56
I2
sg57
Nsg98
g110
(g111
(I0
tp2181
g113
tp2182
Rp2183
(I1
(L3L
L3L
tp2184
g120
I00
S'\x00\x00\x00\x00\x00\x00\xf0?\x00\x00\x00\x00\x00\x00\x00\x00\x00\x00\x00\x00\x00\x00\x00\x00\x00\x00\x00\x00\x00\x00\x00\x00\x00\x00\x00\x00\x00\x00\xf0?\x00\x00\x00\x00\x00\x00\x00\x00\x00\x00\x00\x00\x00\x00\x00\x00\x00\x00\x00\x00\x00\x00\x00\x00\x00\x00\x00\x00\x00\x00\xf0?'
p2185
tp2186
bsg58
g17
sg59
(dp2187
sbsS'_filled'
p2188
I00
sS'_fillstyle'
p2189
Vfull
p2190
sS'_alt_transform'
p2191
Nsg1797
Vbutt
p2192
sg83
Vround
p2193
sS'_path'
p2194
g1
(cmatplotlib.path
Path
p2195
g3
Ntp2196
Rp2197
(dp2198
S'_should_simplify'
p2199
I00
sS'_codes'
p2200
NsS'_vertices'
p2201
g110
(g111
(I0
tp2202
g113
tp2203
Rp2204
(I1
(L2L
L2L
tp2205
g120
I00
S'\x00\x00\x00\x00\x00\x00\x00\x80\x00\x00\x00\x00\x00\x00\x00\x00\x00\x00\x00\x00\x00\x00\x00\x80\x00\x00\x00\x00\x00\x00\xf0?'
p2206
tp2207
bsS'_readonly'
p2208
I00
sS'_simplify_threshold'
p2209
F0.1111111111111111
sS'_interpolation_steps'
p2210
I1
sS'_has_nonfinite'
p2211
I00
sbsbsg40
NsS'_markerfacecoloralt'
p2212
Vnone
p2213
sg77
I01
sS'_markeredgecolor'
p2214
Vauto
p2215
sg80
NsS'_markersize'
p2216
F4.0
sg73
I01
sS'_xy'
p2217
Nsg85
VNone
p2218
sS'_xorig'
p2219
(I0
tp2220
sg89
I0
sS'_drawstyle'
p2221
Vdefault
p2222
sS'ind_offset'
p2223
I0
sS'pickradius'
p2224
I5
sg90
I01
sg92
NsS'_dashjoinstyle'
p2225
g2160
sS'_invalidx'
p2226
I01
sg93
g168
sS'_invalidy'
p2227
I01
sS'zorder'
p2228
F2.01
sg50
Nsg1799
NsS'_yorig'
p2229
(I0
tp2230
sg75
Nsg74
F1.0
sg41
Nsg2194
Nsbsg90
I00
sS'gridline'
p2231
g1
(g2
g3
Ntp2232
Rp2233
(dp2234
g7
g17
sg9
I01
sg10
g11
sg12
g15
sg2156
g2157
sg2158
Nsg18
Nsg49
Nsg25
g26
sg2159
g2160
sg28
I01
sg2161
Nsg31
Nsg63
g110
(g111
(I0
tp2235
g113
tp2236
Rp2237
(I1
(L2L
tp2238
g120
I00
S'\x00\x00\x00\x00\x00\x00\x00\x00\x00\x00\x00\x00\x00\x00\xf0?'
p2239
tp2240
bsg64
g110
(g111
(I0
tp2241
g113
tp2242
Rp2243
(I1
(L2L
tp2244
g120
I00
S'\x00\x00\x00\x00\x00\x00\x00\x00\x00\x00\x00\x00\x00\x00\x00\x00'
p2245
tp2246
bsg65
Nsg32
Nsg19
Nsg35
I00
sg2162
Nsg36
I00
sg37
(dp2247
sg2164
Nsg39
I00
sg2165
I00
sg1800
Nsg2166
Nsg2167
F0.5
sg2168
g2169
sg2170
Nsg1888
g1889
sg2171
g1
(g2172
g3
Ntp2248
Rp2249
(dp2250
g2171
VNone
p2251
sg2176
Nsg2177
Nsg93
g1
(g52
g3
Ntp2252
Rp2253
(dp2254
g56
I1
sg57
Nsg58
g17
sg59
(dp2255
sbsg2188
I00
sg2189
g2190
sg2191
Nsg1797
g2192
sg83
g2193
sg2194
g1
(g2195
g3
Ntp2256
Rp2257
(dp2258
g2199
I00
sg2200
Nsg2201
g110
(g111
(I0
tp2259
g113
tp2260
Rp2261
(I1
(L0L
L2L
tp2262
g120
I00
S''
p2263
tp2264
bsg2208
I00
sg2209
F0.1111111111111111
sg2210
I1
sg2211
I00
sbsbsg40
Nsg2212
g2213
sg77
I01
sg2214
g2215
sg80
Nsg2216
F0.0
sg73
I01
sg2217
g110
(g111
(I0
tp2265
g113
tp2266
Rp2267
(I1
(L2L
L2L
tp2268
g120
I00
S'\x00\x00\x00\x00\x00\x00\x00\x00\x00\x00\x00\x00\x00\x00\x00\x00\x00\x00\x00\x00\x00\x00\x00\x00\x00\x00\x00\x00\x00\x00\xf0?'
p2269
tp2270
bsg85
V:
p2271
sg2219
(F0.0
F0.0
tp2272
sg89
I0
sg2221
g2222
sg2223
I0
sg2224
I5
sg90
I01
sg92
F1.0
sg2225
g2160
sg2226
I00
sg93
g168
sg2227
I00
sg50
Nsg1799
Nsg2229
(I0
F1.0
tp2273
sg75
g256
sg74
F0.5
sg41
Nsg2194
g1
(g2195
g3
Ntp2274
Rp2275
(dp2276
g2199
I00
sg2200
Nsg2201
g2267
sg2208
I00
sg2209
F0.1111111111111111
sg2210
I180
sg2211
I00
sbsbsg92
Nsg40
NsS'tick2line'
p2277
g1
(g2
g3
Ntp2278
Rp2279
(dp2280
g7
g17
sg9
I01
sg10
g11
sg12
g15
sg2156
g2157
sg2158
Nsg18
Nsg49
Nsg25
g26
sg2159
g2160
sg28
I01
sg2161
Nsg31
Nsg63
Nsg64
Nsg65
Nsg32
Nsg19
Nsg35
I00
sg2162
Nsg36
I00
sg37
(dp2281
sg2164
Nsg39
I00
sg2165
I00
sg1800
Nsg2166
Nsg2167
F0.5
sg2168
g2169
sg2170
Nsg1888
g1889
sg2171
g1
(g2172
g3
Ntp2282
Rp2283
(dp2284
g2171
I3
sg2176
Nsg2177
F1.0
sg93
g1
(g141
g3
Ntp2285
Rp2286
(dp2287
g56
I2
sg57
Nsg98
g110
(g111
(I0
tp2288
g113
tp2289
Rp2290
(I1
(L3L
L3L
tp2291
g120
I00
S'\x00\x00\x00\x00\x00\x00\xf0?\x00\x00\x00\x00\x00\x00\x00\x00\x00\x00\x00\x00\x00\x00\x00\x00\x00\x00\x00\x00\x00\x00\x00\x00\x00\x00\x00\x00\x00\x00\xf0\xbf\x00\x00\x00\x00\x00\x00\x00\x00\x00\x00\x00\x00\x00\x00\x00\x00\x00\x00\x00\x00\x00\x00\x00\x00\x00\x00\x00\x00\x00\x00\xf0?'
p2292
tp2293
bsg58
g17
sg59
(dp2294
sbsg2188
I00
sg2189
g2190
sg2191
Nsg1797
g2192
sg83
g2193
sg2194
g2197
sbsg40
Nsg2212
g2213
sg77
I01
sg2214
g2215
sg80
Nsg2216
F4.0
sg73
I01
sg2217
Nsg85
VNone
p2295
sg2219
(I0
tp2296
sg89
I0
sg2221
g2222
sg2223
I0
sg2224
I5
sg90
I01
sg92
Nsg2225
g2160
sg2226
I01
sg93
g168
sg2227
I01
sg2228
F2.01
sg50
Nsg1799
Nsg2229
(I1
tp2297
sg75
Nsg74
F1.0
sg41
Nsg2194
Nsbsg93
NsS'_labelsize'
p2298
g2068
sS'_name'
p2299
Vxtick
p2300
sg50
Nsg1888
g1889
sg41
Nsbag1
(g2109
g3
Ntp2301
Rp2302
(dp2303
g7
g17
sg47
F0.5
sg12
g15
sg2113
I01
sg9
I01
sg18
Nsg89
I0
sg49
Nsg2114
F4.0
sg2115
g1889
sg2116
I00
sg1871
F4.0
sg25
g26
sg2117
g2118
sg2073
g1
(g1855
g3
Ntp2304
Rp2305
(dp2306
g7
g17
sg9
I01
sg12
g15
sg18
Nsg1859
g1
(g1860
g3
Ntp2307
Rp2308
(dp2309
g1864
(lp2310
g1866
asg1867
Nsg1868
g1869
sg1870
g1869
sg1871
g2068
sg1873
I400
sg1874
g1869
sbsg49
Nsg25
g26
sg1875
Nsg28
I01
sg31
Nsg63
I0
sg64
I0
sg32
Nsg19
Nsg35
I00
sg36
I00
sg37
(dp2311
sg1877
Nsg39
I00
sg1800
Nsg75
Nsg1799
Nsg1878
Nsg40
Nsg80
Nsg73
I01
sg1879
g2127
sg1881
V
p2312
sg1883
Nsg65
Nsg89
I0
sg1884
Nsg90
I01
sg92
Nsg1885
F1.2
sg93
g1744
sg1886
Nsg1887
I00
sg50
Nsg1888
g1889
sg1890
g2129
sg41
Nsbsg28
I01
sg31
Nsg2130
I00
sg32
Nsg19
Nsg2131
I01
sg35
I00
sg36
I00
sg37
(dp2313
sg2133
(I2
I3
tp2314
sg39
I00
sg2135
F2.01
sg1800
g1833
sg2136
I01
sg75
g686
sg1799
Nsg2137
g2305
sg2138
g1
(g1855
g3
Ntp2315
Rp2316
(dp2317
g7
g17
sg9
I01
sg12
g15
sg18
Nsg1859
g1
(g1860
g3
Ntp2318
Rp2319
(dp2320
g1864
(lp2321
g1866
asg1867
Nsg1868
g1869
sg1870
g1869
sg1871
g2068
sg1873
I400
sg1874
g1869
sbsg49
Nsg25
g26
sg1875
Nsg28
I01
sg31
Nsg63
I1
sg64
I0
sg32
Nsg19
Nsg35
I00
sg36
I00
sg37
(dp2322
sg1877
Nsg39
I00
sg1800
Nsg75
Nsg1799
Nsg1878
Nsg40
Nsg80
Nsg73
I01
sg1879
g2147
sg1881
V
p2323
sg1883
Nsg65
Nsg89
I0
sg1884
Nsg90
I01
sg92
Nsg1885
F1.2
sg93
g1780
sg1886
Nsg1887
I00
sg50
Nsg1888
g1889
sg1890
g2149
sg41
Nsbsg80
Nsg2150
I0
sg73
I01
sg65
Nsg2151
F4.0
sg2152
g1
(g2
g3
Ntp2324
Rp2325
(dp2326
g7
g17
sg9
I01
sg10
g11
sg12
g15
sg2156
g2157
sg2158
Nsg18
Nsg49
Nsg25
g26
sg2159
g2160
sg28
I01
sg2161
Nsg31
Nsg63
Nsg64
Nsg65
Nsg32
Nsg19
Nsg35
I00
sg2162
Nsg36
I00
sg37
(dp2327
sg2164
Nsg39
I00
sg2165
I00
sg1800
Nsg2166
Nsg2167
F0.5
sg2168
g2169
sg2170
Nsg1888
g1889
sg2171
g1
(g2172
g3
Ntp2328
Rp2329
(dp2330
g2171
I2
sg2176
Nsg2177
F1.0
sg93
g1
(g141
g3
Ntp2331
Rp2332
(dp2333
g56
I2
sg57
Nsg98
g110
(g111
(I0
tp2334
g113
tp2335
Rp2336
(I1
(L3L
L3L
tp2337
g120
I00
S'\x00\x00\x00\x00\x00\x00\xf0?\x00\x00\x00\x00\x00\x00\x00\x00\x00\x00\x00\x00\x00\x00\x00\x00\x00\x00\x00\x00\x00\x00\x00\x00\x00\x00\x00\x00\x00\x00\xf0?\x00\x00\x00\x00\x00\x00\x00\x00\x00\x00\x00\x00\x00\x00\x00\x00\x00\x00\x00\x00\x00\x00\x00\x00\x00\x00\x00\x00\x00\x00\xf0?'
p2338
tp2339
bsg58
g17
sg59
(dp2340
sbsg2188
I00
sg2189
g2190
sg2191
Nsg1797
g2192
sg83
g2193
sg2194
g2197
sbsg40
Nsg2212
g2213
sg77
I01
sg2214
g2215
sg80
Nsg2216
F4.0
sg73
I01
sg2217
Nsg85
g2218
sg2219
(I0
tp2341
sg89
I0
sg2221
g2222
sg2223
I0
sg2224
I5
sg90
I01
sg92
Nsg2225
g2160
sg2226
I01
sg93
g168
sg2227
I01
sg2228
F2.01
sg50
Nsg1799
Nsg2229
g2230
sg75
Nsg74
F1.0
sg41
Nsg2194
Nsbsg90
I00
sg2231
g1
(g2
g3
Ntp2342
Rp2343
(dp2344
g7
g17
sg9
I01
sg10
g11
sg12
g15
sg2156
g2157
sg2158
Nsg18
Nsg49
Nsg25
g26
sg2159
g2160
sg28
I01
sg2161
Nsg31
Nsg63
g110
(g111
(I0
tp2345
g113
tp2346
Rp2347
(I1
(L2L
tp2348
g120
I00
S'\x00\x00\x00\x00\x00\x00\x00\x00\x00\x00\x00\x00\x00\x00\xf0?'
p2349
tp2350
bsg64
g110
(g111
(I0
tp2351
g113
tp2352
Rp2353
(I1
(L2L
tp2354
g120
I00
S'\x00\x00\x00\x00\x00\x00\x00\x00\x00\x00\x00\x00\x00\x00\x00\x00'
p2355
tp2356
bsg65
Nsg32
Nsg19
Nsg35
I00
sg2162
Nsg36
I00
sg37
(dp2357
sg2164
Nsg39
I00
sg2165
I00
sg1800
Nsg2166
Nsg2167
F0.5
sg2168
g2169
sg2170
Nsg1888
g1889
sg2171
g1
(g2172
g3
Ntp2358
Rp2359
(dp2360
g2171
g2251
sg2176
Nsg2177
Nsg93
g1
(g52
g3
Ntp2361
Rp2362
(dp2363
g56
I1
sg57
Nsg58
g17
sg59
(dp2364
sbsg2188
I00
sg2189
g2190
sg2191
Nsg1797
g2192
sg83
g2193
sg2194
g1
(g2195
g3
Ntp2365
Rp2366
(dp2367
g2199
I00
sg2200
Nsg2201
g110
(g111
(I0
tp2368
g113
tp2369
Rp2370
(I1
(L0L
L2L
tp2371
g120
I00
g2263
tp2372
bsg2208
I00
sg2209
F0.1111111111111111
sg2210
I1
sg2211
I00
sbsbsg40
Nsg2212
g2213
sg77
I01
sg2214
g2215
sg80
Nsg2216
F0.0
sg73
I01
sg2217
g110
(g111
(I0
tp2373
g113
tp2374
Rp2375
(I1
(L2L
L2L
tp2376
g120
I00
S'\x00\x00\x00\x00\x00\x00\x00\x00\x00\x00\x00\x00\x00\x00\x00\x00\x00\x00\x00\x00\x00\x00\x00\x00\x00\x00\x00\x00\x00\x00\xf0?'
p2377
tp2378
bsg85
g2271
sg2219
g2272
sg89
I0
sg2221
g2222
sg2223
I0
sg2224
I5
sg90
I01
sg92
F1.0
sg2225
g2160
sg2226
I00
sg93
g168
sg2227
I00
sg50
Nsg1799
Nsg2229
g2273
sg75
g474
sg74
F0.5
sg41
Nsg2194
g1
(g2195
g3
Ntp2379
Rp2380
(dp2381
g2199
I00
sg2200
Nsg2201
g2375
sg2208
I00
sg2209
F0.1111111111111111
sg2210
I180
sg2211
I00
sbsbsg92
Nsg40
Nsg2277
g1
(g2
g3
Ntp2382
Rp2383
(dp2384
g7
g17
sg9
I01
sg10
g11
sg12
g15
sg2156
g2157
sg2158
Nsg18
Nsg49
Nsg25
g26
sg2159
g2160
sg28
I01
sg2161
Nsg31
Nsg63
Nsg64
Nsg65
Nsg32
Nsg19
Nsg35
I00
sg2162
Nsg36
I00
sg37
(dp2385
sg2164
Nsg39
I00
sg2165
I00
sg1800
Nsg2166
Nsg2167
F0.5
sg2168
g2169
sg2170
Nsg1888
g1889
sg2171
g1
(g2172
g3
Ntp2386
Rp2387
(dp2388
g2171
I3
sg2176
Nsg2177
F1.0
sg93
g1
(g141
g3
Ntp2389
Rp2390
(dp2391
g56
I2
sg57
Nsg98
g110
(g111
(I0
tp2392
g113
tp2393
Rp2394
(I1
(L3L
L3L
tp2395
g120
I00
S'\x00\x00\x00\x00\x00\x00\xf0?\x00\x00\x00\x00\x00\x00\x00\x00\x00\x00\x00\x00\x00\x00\x00\x00\x00\x00\x00\x00\x00\x00\x00\x00\x00\x00\x00\x00\x00\x00\xf0\xbf\x00\x00\x00\x00\x00\x00\x00\x00\x00\x00\x00\x00\x00\x00\x00\x00\x00\x00\x00\x00\x00\x00\x00\x00\x00\x00\x00\x00\x00\x00\xf0?'
p2396
tp2397
bsg58
g17
sg59
(dp2398
sbsg2188
I00
sg2189
g2190
sg2191
Nsg1797
g2192
sg83
g2193
sg2194
g2197
sbsg40
Nsg2212
g2213
sg77
I01
sg2214
g2215
sg80
Nsg2216
F4.0
sg73
I01
sg2217
Nsg85
g2295
sg2219
(I0
tp2399
sg89
I0
sg2221
g2222
sg2223
I0
sg2224
I5
sg90
I01
sg92
Nsg2225
g2160
sg2226
I01
sg93
g168
sg2227
I01
sg2228
F2.01
sg50
Nsg1799
Nsg2229
g2297
sg75
Nsg74
F1.0
sg41
Nsg2194
Nsbsg93
Nsg2298
g2068
sg2299
g2300
sg50
Nsg1888
g1889
sg41
NsbasS'isDefault_majloc'
p2400
I01
sg1807
g1
(g1808
g3
Ntp2401
Rp2402
sg80
Nsg73
I01
sS'_autolabelpos'
p2403
I01
sg65
Nsg89
I0
sS'_lastNumMajorTicks'
p2404
I1
sS'converter'
p2405
Nsg90
I00
sg92
NsS'offset_text_position'
p2406
Vbottom
p2407
sg93
NsS'label_position'
p2408
Vbottom
p2409
sg50
Nsg1799
Nsg2224
I15
sS'minorTicks'
p2410
(lp2411
g1
(g2109
g3
Ntp2412
Rp2413
(dp2414
g7
g17
sg47
F0.5
sg12
g15
sg2113
I01
sg9
I01
sg18
Nsg89
I0
sg49
Nsg2114
F4.0
sg2115
g1889
sg2116
I00
sg1871
F2.0
sg25
g26
sg2117
g2118
sg2073
g1
(g1855
g3
Ntp2415
Rp2416
(dp2417
g7
g17
sg9
I01
sg12
g15
sg18
Nsg1859
g1
(g1860
g3
Ntp2418
Rp2419
(dp2420
g1864
(lp2421
g1866
asg1867
Nsg1868
g1869
sg1870
g1869
sg1871
g2068
sg1873
I400
sg1874
g1869
sbsg49
Nsg25
g26
sg1875
Nsg28
I01
sg31
Nsg63
I0
sg64
I0
sg32
Nsg19
Nsg35
I00
sg36
I00
sg37
(dp2422
sg1877
Nsg39
I00
sg1800
Nsg75
Nsg1799
Nsg1878
Nsg40
Nsg80
Nsg73
I01
sg1879
g2127
sg1881
V
p2423
sg1883
Nsg65
Nsg89
I0
sg1884
Nsg90
I01
sg92
Nsg1885
F1.2
sg93
g162
sg1886
Nsg1887
I00
sg50
Nsg1888
g1889
sg1890
g2129
sg41
Nsbsg28
I01
sg31
Nsg2130
I00
sg32
Nsg19
Nsg2131
I01
sg35
I00
sg36
I00
sg37
(dp2424
sg2133
(I2
I3
tp2425
sg39
I00
sg2135
I2
sg1800
g1833
sg2136
I01
sg75
g843
sg1799
Nsg2137
g2416
sg2138
g1
(g1855
g3
Ntp2426
Rp2427
(dp2428
g7
g17
sg9
I01
sg12
g15
sg18
Nsg1859
g1
(g1860
g3
Ntp2429
Rp2430
(dp2431
g1864
(lp2432
g1866
asg1867
Nsg1868
g1869
sg1870
g1869
sg1871
g2068
sg1873
I400
sg1874
g1869
sbsg49
Nsg25
g26
sg1875
Nsg28
I01
sg31
Nsg63
I1
sg64
I0
sg32
Nsg19
Nsg35
I00
sg36
I00
sg37
(dp2433
sg1877
Nsg39
I00
sg1800
Nsg75
Nsg1799
Nsg1878
Nsg40
Nsg80
Nsg73
I01
sg1879
g2147
sg1881
V
p2434
sg1883
Nsg65
Nsg89
I0
sg1884
Nsg90
I01
sg92
Nsg1885
F1.2
sg93
g1762
sg1886
Nsg1887
I00
sg50
Nsg1888
g1889
sg1890
g2149
sg41
Nsbsg80
Nsg2150
I0
sg73
I01
sg65
Nsg2151
F4.0
sg2152
g1
(g2
g3
Ntp2435
Rp2436
(dp2437
g7
g17
sg9
I01
sg10
g11
sg12
g15
sg2156
g2157
sg2158
Nsg18
Nsg49
Nsg25
g26
sg2159
g2160
sg28
I01
sg2161
Nsg31
Nsg63
Nsg64
Nsg65
Nsg32
Nsg19
Nsg35
I00
sg2162
Nsg36
I00
sg37
(dp2438
sg2164
Nsg39
I00
sg2165
I00
sg1800
Nsg2166
Nsg2167
F0.5
sg2168
g2169
sg2170
Nsg1888
g1889
sg2171
g1
(g2172
g3
Ntp2439
Rp2440
(dp2441
g2171
I2
sg2176
Nsg2177
F1.0
sg93
g1
(g141
g3
Ntp2442
Rp2443
(dp2444
g56
I2
sg57
Nsg98
g110
(g111
(I0
tp2445
g113
tp2446
Rp2447
(I1
(L3L
L3L
tp2448
g120
I00
S'\x00\x00\x00\x00\x00\x00\xf0?\x00\x00\x00\x00\x00\x00\x00\x00\x00\x00\x00\x00\x00\x00\x00\x00\x00\x00\x00\x00\x00\x00\x00\x00\x00\x00\x00\x00\x00\x00\xf0?\x00\x00\x00\x00\x00\x00\x00\x00\x00\x00\x00\x00\x00\x00\x00\x00\x00\x00\x00\x00\x00\x00\x00\x00\x00\x00\x00\x00\x00\x00\xf0?'
p2449
tp2450
bsg58
g17
sg59
(dp2451
sbsg2188
I00
sg2189
g2190
sg2191
Nsg1797
g2192
sg83
g2193
sg2194
g2197
sbsg40
Nsg2212
g2213
sg77
I01
sg2214
g2215
sg80
Nsg2216
F2.0
sg73
I01
sg2217
Nsg85
g2218
sg2219
(I0
tp2452
sg89
I0
sg2221
g2222
sg2223
I0
sg2224
I5
sg90
I01
sg92
Nsg2225
g2160
sg2226
I01
sg93
g168
sg2227
I01
sg2228
I2
sg50
Nsg1799
Nsg2229
g2230
sg75
Nsg74
F1.0
sg41
Nsg2194
Nsbsg90
I00
sg2231
g1
(g2
g3
Ntp2453
Rp2454
(dp2455
g7
g17
sg9
I01
sg10
g11
sg12
g15
sg2156
g2157
sg2158
Nsg18
Nsg49
Nsg25
g26
sg2159
g2160
sg28
I01
sg2161
Nsg31
Nsg63
g110
(g111
(I0
tp2456
g113
tp2457
Rp2458
(I1
(L2L
tp2459
g120
I00
S'\x00\x00\x00\x00\x00\x00\x00\x00\x00\x00\x00\x00\x00\x00\xf0?'
p2460
tp2461
bsg64
g110
(g111
(I0
tp2462
g113
tp2463
Rp2464
(I1
(L2L
tp2465
g120
I00
S'\x00\x00\x00\x00\x00\x00\x00\x00\x00\x00\x00\x00\x00\x00\x00\x00'
p2466
tp2467
bsg65
Nsg32
Nsg19
Nsg35
I00
sg2162
Nsg36
I00
sg37
(dp2468
sg2164
Nsg39
I00
sg2165
I00
sg1800
Nsg2166
Nsg2167
F0.5
sg2168
g2169
sg2170
Nsg1888
g1889
sg2171
g1
(g2172
g3
Ntp2469
Rp2470
(dp2471
g2171
g2251
sg2176
Nsg2177
Nsg93
g1
(g52
g3
Ntp2472
Rp2473
(dp2474
g56
I1
sg57
Nsg58
g17
sg59
(dp2475
sbsg2188
I00
sg2189
g2190
sg2191
Nsg1797
g2192
sg83
g2193
sg2194
g1
(g2195
g3
Ntp2476
Rp2477
(dp2478
g2199
I00
sg2200
Nsg2201
g110
(g111
(I0
tp2479
g113
tp2480
Rp2481
(I1
(L0L
L2L
tp2482
g120
I00
g2263
tp2483
bsg2208
I00
sg2209
F0.1111111111111111
sg2210
I1
sg2211
I00
sbsbsg40
Nsg2212
g2213
sg77
I01
sg2214
g2215
sg80
Nsg2216
F0.0
sg73
I01
sg2217
g110
(g111
(I0
tp2484
g113
tp2485
Rp2486
(I1
(L2L
L2L
tp2487
g120
I00
S'\x00\x00\x00\x00\x00\x00\x00\x00\x00\x00\x00\x00\x00\x00\x00\x00\x00\x00\x00\x00\x00\x00\x00\x00\x00\x00\x00\x00\x00\x00\xf0?'
p2488
tp2489
bsg85
g2271
sg2219
g2272
sg89
I0
sg2221
g2222
sg2223
I0
sg2224
I5
sg90
I01
sg92
F1.0
sg2225
g2160
sg2226
I00
sg93
g168
sg2227
I00
sg50
Nsg1799
Nsg2229
g2273
sg75
g334
sg74
F0.5
sg41
Nsg2194
g1
(g2195
g3
Ntp2490
Rp2491
(dp2492
g2199
I00
sg2200
Nsg2201
g2486
sg2208
I00
sg2209
F0.1111111111111111
sg2210
I180
sg2211
I00
sbsbsg92
Nsg40
Nsg2277
g1
(g2
g3
Ntp2493
Rp2494
(dp2495
g7
g17
sg9
I01
sg10
g11
sg12
g15
sg2156
g2157
sg2158
Nsg18
Nsg49
Nsg25
g26
sg2159
g2160
sg28
I01
sg2161
Nsg31
Nsg63
Nsg64
Nsg65
Nsg32
Nsg19
Nsg35
I00
sg2162
Nsg36
I00
sg37
(dp2496
sg2164
Nsg39
I00
sg2165
I00
sg1800
Nsg2166
Nsg2167
F0.5
sg2168
g2169
sg2170
Nsg1888
g1889
sg2171
g1
(g2172
g3
Ntp2497
Rp2498
(dp2499
g2171
I3
sg2176
Nsg2177
F1.0
sg93
g1
(g141
g3
Ntp2500
Rp2501
(dp2502
g56
I2
sg57
Nsg98
g110
(g111
(I0
tp2503
g113
tp2504
Rp2505
(I1
(L3L
L3L
tp2506
g120
I00
S'\x00\x00\x00\x00\x00\x00\xf0?\x00\x00\x00\x00\x00\x00\x00\x00\x00\x00\x00\x00\x00\x00\x00\x00\x00\x00\x00\x00\x00\x00\x00\x00\x00\x00\x00\x00\x00\x00\xf0\xbf\x00\x00\x00\x00\x00\x00\x00\x00\x00\x00\x00\x00\x00\x00\x00\x00\x00\x00\x00\x00\x00\x00\x00\x00\x00\x00\x00\x00\x00\x00\xf0?'
p2507
tp2508
bsg58
g17
sg59
(dp2509
sbsg2188
I00
sg2189
g2190
sg2191
Nsg1797
g2192
sg83
g2193
sg2194
g2197
sbsg40
Nsg2212
g2213
sg77
I01
sg2214
g2215
sg80
Nsg2216
F2.0
sg73
I01
sg2217
Nsg85
g2295
sg2219
(I0
tp2510
sg89
I0
sg2221
g2222
sg2223
I0
sg2224
I5
sg90
I01
sg92
Nsg2225
g2160
sg2226
I01
sg93
g168
sg2227
I01
sg2228
I2
sg50
Nsg1799
Nsg2229
g2297
sg75
Nsg74
F1.0
sg41
Nsg2194
Nsbsg93
Nsg2298
g2068
sg2299
g2300
sg50
Nsg1888
g1889
sg41
Nsbag1
(g2109
g3
Ntp2511
Rp2512
(dp2513
g7
g17
sg47
F0.5
sg12
g15
sg2113
I01
sg9
I01
sg18
Nsg89
I0
sg49
Nsg2114
F4.0
sg2115
g1889
sg2116
I00
sg1871
F2.0
sg25
g26
sg2117
g2118
sg2073
g1
(g1855
g3
Ntp2514
Rp2515
(dp2516
g7
g17
sg9
I01
sg12
g15
sg18
Nsg1859
g1
(g1860
g3
Ntp2517
Rp2518
(dp2519
g1864
(lp2520
g1866
asg1867
Nsg1868
g1869
sg1870
g1869
sg1871
g2068
sg1873
I400
sg1874
g1869
sbsg49
Nsg25
g26
sg1875
Nsg28
I01
sg31
Nsg63
I0
sg64
I0
sg32
Nsg19
Nsg35
I00
sg36
I00
sg37
(dp2521
sg1877
Nsg39
I00
sg1800
Nsg75
Nsg1799
Nsg1878
Nsg40
Nsg80
Nsg73
I01
sg1879
g2127
sg1881
V
p2522
sg1883
Nsg65
Nsg89
I0
sg1884
Nsg90
I01
sg92
Nsg1885
F1.2
sg93
g1735
sg1886
Nsg1887
I00
sg50
Nsg1888
g1889
sg1890
g2129
sg41
Nsbsg28
I01
sg31
Nsg2130
I00
sg32
Nsg19
Nsg2131
I01
sg35
I00
sg36
I00
sg37
(dp2523
sg2133
(I2
I3
tp2524
sg39
I00
sg2135
I2
sg1800
g1833
sg2136
I01
sg75
g404
sg1799
Nsg2137
g2515
sg2138
g1
(g1855
g3
Ntp2525
Rp2526
(dp2527
g7
g17
sg9
I01
sg12
g15
sg18
Nsg1859
g1
(g1860
g3
Ntp2528
Rp2529
(dp2530
g1864
(lp2531
g1866
asg1867
Nsg1868
g1869
sg1870
g1869
sg1871
g2068
sg1873
I400
sg1874
g1869
sbsg49
Nsg25
g26
sg1875
Nsg28
I01
sg31
Nsg63
I1
sg64
I0
sg32
Nsg19
Nsg35
I00
sg36
I00
sg37
(dp2532
sg1877
Nsg39
I00
sg1800
Nsg75
Nsg1799
Nsg1878
Nsg40
Nsg80
Nsg73
I01
sg1879
g2147
sg1881
V
p2533
sg1883
Nsg65
Nsg89
I0
sg1884
Nsg90
I01
sg92
Nsg1885
F1.2
sg93
g1753
sg1886
Nsg1887
I00
sg50
Nsg1888
g1889
sg1890
g2149
sg41
Nsbsg80
Nsg2150
I0
sg73
I01
sg65
Nsg2151
F4.0
sg2152
g1
(g2
g3
Ntp2534
Rp2535
(dp2536
g7
g17
sg9
I01
sg10
g11
sg12
g15
sg2156
g2157
sg2158
Nsg18
Nsg49
Nsg25
g26
sg2159
g2160
sg28
I01
sg2161
Nsg31
Nsg63
Nsg64
Nsg65
Nsg32
Nsg19
Nsg35
I00
sg2162
Nsg36
I00
sg37
(dp2537
sg2164
Nsg39
I00
sg2165
I00
sg1800
Nsg2166
Nsg2167
F0.5
sg2168
g2169
sg2170
Nsg1888
g1889
sg2171
g1
(g2172
g3
Ntp2538
Rp2539
(dp2540
g2171
I2
sg2176
Nsg2177
F1.0
sg93
g1
(g141
g3
Ntp2541
Rp2542
(dp2543
g56
I2
sg57
Nsg98
g110
(g111
(I0
tp2544
g113
tp2545
Rp2546
(I1
(L3L
L3L
tp2547
g120
I00
S'\x00\x00\x00\x00\x00\x00\xf0?\x00\x00\x00\x00\x00\x00\x00\x00\x00\x00\x00\x00\x00\x00\x00\x00\x00\x00\x00\x00\x00\x00\x00\x00\x00\x00\x00\x00\x00\x00\xf0?\x00\x00\x00\x00\x00\x00\x00\x00\x00\x00\x00\x00\x00\x00\x00\x00\x00\x00\x00\x00\x00\x00\x00\x00\x00\x00\x00\x00\x00\x00\xf0?'
p2548
tp2549
bsg58
g17
sg59
(dp2550
sbsg2188
I00
sg2189
g2190
sg2191
Nsg1797
g2192
sg83
g2193
sg2194
g2197
sbsg40
Nsg2212
g2213
sg77
I01
sg2214
g2215
sg80
Nsg2216
F2.0
sg73
I01
sg2217
Nsg85
g2218
sg2219
(I0
tp2551
sg89
I0
sg2221
g2222
sg2223
I0
sg2224
I5
sg90
I01
sg92
Nsg2225
g2160
sg2226
I01
sg93
g168
sg2227
I01
sg2228
I2
sg50
Nsg1799
Nsg2229
g2230
sg75
Nsg74
F1.0
sg41
Nsg2194
Nsbsg90
I00
sg2231
g1
(g2
g3
Ntp2552
Rp2553
(dp2554
g7
g17
sg9
I01
sg10
g11
sg12
g15
sg2156
g2157
sg2158
Nsg18
Nsg49
Nsg25
g26
sg2159
g2160
sg28
I01
sg2161
Nsg31
Nsg63
g110
(g111
(I0
tp2555
g113
tp2556
Rp2557
(I1
(L2L
tp2558
g120
I00
S'\x00\x00\x00\x00\x00\x00\x00\x00\x00\x00\x00\x00\x00\x00\xf0?'
p2559
tp2560
bsg64
g110
(g111
(I0
tp2561
g113
tp2562
Rp2563
(I1
(L2L
tp2564
g120
I00
S'\x00\x00\x00\x00\x00\x00\x00\x00\x00\x00\x00\x00\x00\x00\x00\x00'
p2565
tp2566
bsg65
Nsg32
Nsg19
Nsg35
I00
sg2162
Nsg36
I00
sg37
(dp2567
sg2164
Nsg39
I00
sg2165
I00
sg1800
Nsg2166
Nsg2167
F0.5
sg2168
g2169
sg2170
Nsg1888
g1889
sg2171
g1
(g2172
g3
Ntp2568
Rp2569
(dp2570
g2171
g2251
sg2176
Nsg2177
Nsg93
g1
(g52
g3
Ntp2571
Rp2572
(dp2573
g56
I1
sg57
Nsg58
g17
sg59
(dp2574
sbsg2188
I00
sg2189
g2190
sg2191
Nsg1797
g2192
sg83
g2193
sg2194
g1
(g2195
g3
Ntp2575
Rp2576
(dp2577
g2199
I00
sg2200
Nsg2201
g110
(g111
(I0
tp2578
g113
tp2579
Rp2580
(I1
(L0L
L2L
tp2581
g120
I00
g2263
tp2582
bsg2208
I00
sg2209
F0.1111111111111111
sg2210
I1
sg2211
I00
sbsbsg40
Nsg2212
g2213
sg77
I01
sg2214
g2215
sg80
Nsg2216
F0.0
sg73
I01
sg2217
g110
(g111
(I0
tp2583
g113
tp2584
Rp2585
(I1
(L2L
L2L
tp2586
g120
I00
S'\x00\x00\x00\x00\x00\x00\x00\x00\x00\x00\x00\x00\x00\x00\x00\x00\x00\x00\x00\x00\x00\x00\x00\x00\x00\x00\x00\x00\x00\x00\xf0?'
p2587
tp2588
bsg85
g2271
sg2219
g2272
sg89
I0
sg2221
g2222
sg2223
I0
sg2224
I5
sg90
I01
sg92
F1.0
sg2225
g2160
sg2226
I00
sg93
g168
sg2227
I00
sg50
Nsg1799
Nsg2229
g2273
sg75
g1699
sg74
F0.5
sg41
Nsg2194
g1
(g2195
g3
Ntp2589
Rp2590
(dp2591
g2199
I00
sg2200
Nsg2201
g2585
sg2208
I00
sg2209
F0.1111111111111111
sg2210
I180
sg2211
I00
sbsbsg92
Nsg40
Nsg2277
g1
(g2
g3
Ntp2592
Rp2593
(dp2594
g7
g17
sg9
I01
sg10
g11
sg12
g15
sg2156
g2157
sg2158
Nsg18
Nsg49
Nsg25
g26
sg2159
g2160
sg28
I01
sg2161
Nsg31
Nsg63
Nsg64
Nsg65
Nsg32
Nsg19
Nsg35
I00
sg2162
Nsg36
I00
sg37
(dp2595
sg2164
Nsg39
I00
sg2165
I00
sg1800
Nsg2166
Nsg2167
F0.5
sg2168
g2169
sg2170
Nsg1888
g1889
sg2171
g1
(g2172
g3
Ntp2596
Rp2597
(dp2598
g2171
I3
sg2176
Nsg2177
F1.0
sg93
g1
(g141
g3
Ntp2599
Rp2600
(dp2601
g56
I2
sg57
Nsg98
g110
(g111
(I0
tp2602
g113
tp2603
Rp2604
(I1
(L3L
L3L
tp2605
g120
I00
S'\x00\x00\x00\x00\x00\x00\xf0?\x00\x00\x00\x00\x00\x00\x00\x00\x00\x00\x00\x00\x00\x00\x00\x00\x00\x00\x00\x00\x00\x00\x00\x00\x00\x00\x00\x00\x00\x00\xf0\xbf\x00\x00\x00\x00\x00\x00\x00\x00\x00\x00\x00\x00\x00\x00\x00\x00\x00\x00\x00\x00\x00\x00\x00\x00\x00\x00\x00\x00\x00\x00\xf0?'
p2606
tp2607
bsg58
g17
sg59
(dp2608
sbsg2188
I00
sg2189
g2190
sg2191
Nsg1797
g2192
sg83
g2193
sg2194
g2197
sbsg40
Nsg2212
g2213
sg77
I01
sg2214
g2215
sg80
Nsg2216
F2.0
sg73
I01
sg2217
Nsg85
g2295
sg2219
(I0
tp2609
sg89
I0
sg2221
g2222
sg2223
I0
sg2224
I5
sg90
I01
sg92
Nsg2225
g2160
sg2226
I01
sg93
g168
sg2227
I01
sg2228
I2
sg50
Nsg1799
Nsg2229
g2297
sg75
Nsg74
F1.0
sg41
Nsg2194
Nsbsg93
Nsg2298
g2068
sg2299
g2300
sg50
Nsg1888
g1889
sg41
Nsbasg41
NsS'_minor_tick_kw'
p2610
(dp2611
sS'isDefault_minfmt'
p2612
I01
sbsS'_navigate_mode'
p2613
Nsg41
NsS'transAxes'
p2614
g171
sS'_connected'
p2615
(dp2616
sS'fmt_ydata'
p2617
NsS'dataLim'
p2618
g1
(g105
g3
Ntp2619
Rp2620
(dp2621
g56
I0
sg109
g110
(g111
(I0
tp2622
g113
tp2623
Rp2624
(I1
(L2L
tp2625
g120
I00
S'\x00\x00\x00\x00\x00\x00\xf0?\x00\x00\x00\x00\x00\x00\xf0?'
p2626
tp2627
bsg59
(dp2628
sg126
g110
(g111
(I0
tp2629
g113
tp2630
Rp2631
(I1
(L2L
L2L
tp2632
g120
I00
S'\x00\x00\x00\x00\x00\x00\xf0\x7f\x00\x00\x00\x00\x00\x00\xf0\x7f\x00\x00\x00\x00\x00\x00\xf0\xff\x00\x00\x00\x00\x00\x00\xf0\xff'
p2633
tp2634
bsg133
g110
(g111
(I0
tp2635
g113
tp2636
Rp2637
(I1
(L2L
L2L
tp2638
g120
I00
S'\x00\x00\x00\x00\x00\x00\xf0?\x00\x00\x00\x00\x00\x00\xf0?\x00\x00\x00\x00\x00\x00\x10@\x00\x00\x00\x00\x00\x00\x10@'
p2639
tp2640
bsg140
I01
sg58
g17
sbsS'transData'
p2641
g503
sg40
NsS'_sharey'
p2642
NsS'_sharex'
p2643
NsS'axesPatch'
p2644
g1944
sS'_ymargin'
p2645
F0.0
sS'_axes_locator'
p2646
NsS'numCols'
p2647
I1
sg92
Nsg1811
I00
sS'yaxis'
p2648
g1
(cmatplotlib.axis
YAxis
p2649
g3
Ntp2650
Rp2651
(dp2652
g7
g17
sg2021
g1
(g2022
g3
Ntp2653
Rp2654
(dp2655
g2026
g1
(g2027
g3
Ntp2656
Rp2657
(dp2658
g2031
I00
sg2032
I9
sg2033
(lp2659
I1
aI2
aI5
aI10
asg2035
Nsg2036
I00
sg2037
I01
sg2038
g2651
sbsg2039
g1
(g2040
g3
Ntp2660
Rp2661
(dp2662
g2044
g2045
sg2046
I0
sg2047
I00
sg2048
g17
sg2049
I00
sg2050
I01
sg2051
I0
sg1886
I00
sg2052
I01
sg2038
g2651
sbsbsg2053
I01
sg2054
g1
(g2055
g3
Ntp2663
Rp2664
sg12
g15
sg9
I01
sg2058
I00
sg18
Nsg49
Nsg2059
I00
sg25
g26
sg28
I01
sg31
Nsg2060
g1
(g1855
g3
Ntp2665
Rp2666
(dp2667
g7
g17
sg9
I01
sg12
g15
sg18
Nsg1859
g1
(g1860
g3
Ntp2668
Rp2669
(dp2670
g1864
(lp2671
g1866
asg1867
Nsg1868
g1869
sg1870
g1869
sg1871
g2068
sg1873
I400
sg1874
g1869
sbsg49
Nsg25
g26
sg1875
Nsg28
I01
sg31
Nsg63
F0.5
sg64
I0
sg32
Nsg19
Nsg35
I00
sg36
I00
sg37
(dp2672
sg1877
Nsg39
I00
sg1800
Nsg75
Nsg1799
Nsg1878
Nsg40
Nsg80
Nsg73
I01
sg1879
Vbaseline
p2673
sg1881
V
p2674
sg1883
Nsg65
Nsg89
I0
sg1884
Nsg90
I01
sg92
Nsg1885
F1.2
sg93
g1219
sg1886
Nsg1887
I00
sg50
Nsg1888
g1889
sg1890
Vleft
p2675
sg41
Nsbsg32
Nsg19
Nsg2073
g1
(g1855
g3
Ntp2676
Rp2677
(dp2678
g7
g17
sg9
I01
sg12
g15
sg18
Nsg1859
g1
(g1860
g3
Ntp2679
Rp2680
(dp2681
g1864
(lp2682
g1866
asg1867
Nsg1868
g1869
sg1870
g1869
sg1871
g2068
sg1873
I400
sg1874
g1869
sbsg49
Nsg25
g26
sg1875
Nsg28
I01
sg31
Nsg63
F0.5
sg64
I0
sg32
Nsg19
Nsg35
I00
sg36
I00
sg37
(dp2683
sg1877
Nsg39
I00
sg1800
Nsg75
Nsg1799
Nsg1878
Vanchor
p2684
sg40
Nsg80
Nsg73
I01
sg1879
Vbottom
p2685
sg1881
V
p2686
sg1883
Nsg65
Nsg89
I0
sg1884
Vvertical
p2687
sg90
I01
sg92
Nsg1885
F1.2
sg93
g202
sg1886
Nsg1887
I00
sg50
Nsg1888
g1889
sg1890
Vcenter
p2688
sg41
Nsbsg35
I00
sg2085
I01
sg36
I00
sg37
(dp2689
sg2087
Nsg39
I00
sg2088
g1
(g2022
g3
Ntp2690
Rp2691
(dp2692
g2026
g1
(g2092
g3
Ntp2693
Rp2694
(dp2695
g2038
g2651
sbsg2039
g1
(g2096
g3
Ntp2696
Rp2697
(dp2698
g2038
g2651
sbsbsg1800
g1833
sg2100
(dp2699
g2102
I00
ssg2103
I01
sg75
g983
sg40
Nsg2104
I00
sg2105
I1
sg2106
F5.0
sg2107
(lp2700
g1
(cmatplotlib.axis
YTick
p2701
g3
Ntp2702
Rp2703
(dp2704
g7
g17
sg47
F0.5
sg12
g15
sg2113
I01
sg9
I01
sg18
Nsg89
I0
sg49
Nsg2114
F4.0
sg2115
g1889
sg2116
I00
sg1871
F4.0
sg25
g26
sg2117
g2118
sg2073
g1
(g1855
g3
Ntp2705
Rp2706
(dp2707
g7
g17
sg9
I01
sg12
g15
sg18
Nsg1859
g1
(g1860
g3
Ntp2708
Rp2709
(dp2710
g1864
(lp2711
g1866
asg1867
Nsg1868
g1869
sg1870
g1869
sg1871
g2068
sg1873
I400
sg1874
g1869
sbsg49
Nsg25
g26
sg1875
Nsg28
I01
sg31
Nsg63
I0
sg64
I0
sg32
Nsg19
Nsg35
I00
sg36
I00
sg37
(dp2712
sg1877
Nsg39
I00
sg1800
Nsg75
Nsg1799
Nsg1878
Nsg40
Nsg80
Nsg73
I01
sg1879
Vcenter
p2713
sg1881
V
p2714
sg1883
Nsg65
Nsg89
I0
sg1884
Nsg90
I01
sg92
Nsg1885
F1.2
sg93
g624
sg1886
Nsg1887
I00
sg50
Nsg1888
g1889
sg1890
Vright
p2715
sg41
Nsbsg28
I01
sg31
Nsg2130
I00
sg32
Nsg19
Nsg2131
I01
sg35
I00
sg36
I00
sg37
(dp2716
sg2133
(I1
I0
tp2717
sg39
I00
sg2135
F2.01
sg1800
g1833
sg2136
I01
sg75
g1123
sg1799
Nsg2137
g2706
sg2138
g1
(g1855
g3
Ntp2718
Rp2719
(dp2720
g7
g17
sg9
I01
sg12
g15
sg18
Nsg1859
g1
(g1860
g3
Ntp2721
Rp2722
(dp2723
g1864
(lp2724
g1866
asg1867
Nsg1868
g1869
sg1870
g1869
sg1871
g2068
sg1873
I400
sg1874
g1869
sbsg49
Nsg25
g26
sg1875
Nsg28
I01
sg31
Nsg63
I0
sg64
I1
sg32
Nsg19
Nsg35
I00
sg36
I00
sg37
(dp2725
sg1877
Nsg39
I00
sg1800
Nsg75
Nsg1799
Nsg1878
Nsg40
Nsg80
Nsg73
I01
sg1879
Vcenter
p2726
sg1881
V
p2727
sg1883
Nsg65
Nsg89
I0
sg1884
Nsg90
I01
sg92
Nsg1885
F1.2
sg93
g606
sg1886
Nsg1887
I00
sg50
Nsg1888
g1889
sg1890
Vleft
p2728
sg41
Nsbsg80
Nsg2150
I0
sg73
I01
sg65
Nsg2151
F4.0
sg2152
g1
(g2
g3
Ntp2729
Rp2730
(dp2731
g7
g17
sg9
I01
sg10
g11
sg12
g15
sg2156
g2157
sg2158
Nsg18
Nsg49
Nsg25
g26
sg2159
g2160
sg28
I01
sg2161
Nsg31
Nsg63
Nsg64
Nsg65
Nsg32
Nsg19
Nsg35
I00
sg2162
Nsg36
I00
sg37
(dp2732
sg2164
Nsg39
I00
sg2165
I00
sg1800
Nsg2166
Nsg2167
F0.5
sg2168
g2169
sg2170
Nsg1888
g1889
sg2171
g1
(g2172
g3
Ntp2733
Rp2734
(dp2735
g2171
I1
sg2176
Nsg2177
F1.0
sg93
g1
(g141
g3
Ntp2736
Rp2737
(dp2738
g56
I2
sg57
Nsg98
g110
(g111
(I0
tp2739
g113
tp2740
Rp2741
(I1
(L3L
L3L
tp2742
g120
I00
S'\x00\x00\x00\x00\x00\x00\xf0?\x00\x00\x00\x00\x00\x00\x00\x00\x00\x00\x00\x00\x00\x00\x00\x00\x00\x00\x00\x00\x00\x00\x00\x00\x00\x00\x00\x00\x00\x00\xf0?\x00\x00\x00\x00\x00\x00\x00\x00\x00\x00\x00\x00\x00\x00\x00\x00\x00\x00\x00\x00\x00\x00\x00\x00\x00\x00\x00\x00\x00\x00\xf0?'
p2743
tp2744
bsg58
g17
sg59
(dp2745
sbsg2188
I00
sg2189
g2190
sg2191
Nsg1797
g2192
sg83
g2193
sg2194
g1
(g2195
g3
Ntp2746
Rp2747
(dp2748
g2199
I00
sg2200
Nsg2201
g110
(g111
(I0
tp2749
g113
tp2750
Rp2751
(I1
(L2L
L2L
tp2752
g120
I00
S'\x00\x00\x00\x00\x00\x00\x00\x00\x00\x00\x00\x00\x00\x00\x00\x00\x00\x00\x00\x00\x00\x00\xf0?\x00\x00\x00\x00\x00\x00\x00\x00'
p2753
tp2754
bsg2208
I00
sg2209
F0.1111111111111111
sg2210
I1
sg2211
I00
sbsbsg40
Nsg2212
g2213
sg77
I01
sg2214
g2215
sg80
Nsg2216
F4.0
sg73
I01
sg2217
Nsg85
VNone
p2755
sg2219
(I0
tp2756
sg89
I0
sg2221
g2222
sg2223
I0
sg2224
I5
sg90
I01
sg92
Nsg2225
g2160
sg2226
I01
sg93
g500
sg2227
I01
sg2228
F2.01
sg50
Nsg1799
Nsg2229
(I0
tp2757
sg75
Nsg74
F1.0
sg41
Nsg2194
Nsbsg90
I00
sg2231
g1
(g2
g3
Ntp2758
Rp2759
(dp2760
g7
g17
sg9
I01
sg10
g11
sg12
g15
sg2156
g2157
sg2158
Nsg18
Nsg49
Nsg25
g26
sg2159
g2160
sg28
I01
sg2161
Nsg31
Nsg63
g110
(g111
(I0
tp2761
g113
tp2762
Rp2763
(I1
(L2L
tp2764
g120
I00
S'\x00\x00\x00\x00\x00\x00\x00\x00\x00\x00\x00\x00\x00\x00\x00\x00'
p2765
tp2766
bsg64
g110
(g111
(I0
tp2767
g113
tp2768
Rp2769
(I1
(L2L
tp2770
g120
I00
S'\x00\x00\x00\x00\x00\x00\x00\x00\x00\x00\x00\x00\x00\x00\xf0?'
p2771
tp2772
bsg65
Nsg32
Nsg19
Nsg35
I00
sg2162
Nsg36
I00
sg37
(dp2773
sg2164
Nsg39
I00
sg2165
I00
sg1800
Nsg2166
Nsg2167
F0.5
sg2168
g2169
sg2170
Nsg1888
g1889
sg2171
g1
(g2172
g3
Ntp2774
Rp2775
(dp2776
g2171
g2251
sg2176
Nsg2177
Nsg93
g1
(g52
g3
Ntp2777
Rp2778
(dp2779
g56
I1
sg57
Nsg58
g17
sg59
(dp2780
sbsg2188
I00
sg2189
g2190
sg2191
Nsg1797
g2192
sg83
g2193
sg2194
g1
(g2195
g3
Ntp2781
Rp2782
(dp2783
g2199
I00
sg2200
Nsg2201
g110
(g111
(I0
tp2784
g113
tp2785
Rp2786
(I1
(L0L
L2L
tp2787
g120
I00
g2263
tp2788
bsg2208
I00
sg2209
F0.1111111111111111
sg2210
I1
sg2211
I00
sbsbsg40
Nsg2212
g2213
sg77
I01
sg2214
g2215
sg80
Nsg2216
F0.0
sg73
I01
sg2217
g110
(g111
(I0
tp2789
g113
tp2790
Rp2791
(I1
(L2L
L2L
tp2792
g120
I00
S'\x00\x00\x00\x00\x00\x00\x00\x00\x00\x00\x00\x00\x00\x00\x00\x00\x00\x00\x00\x00\x00\x00\xf0?\x00\x00\x00\x00\x00\x00\x00\x00'
p2793
tp2794
bsg85
g2271
sg2219
(I0
I1
tp2795
sg89
I0
sg2221
g2222
sg2223
I0
sg2224
I5
sg90
I01
sg92
F1.0
sg2225
g2160
sg2226
I00
sg93
g500
sg2227
I00
sg50
Nsg1799
Nsg2229
(I0
I0
tp2796
sg75
g1271
sg74
F0.5
sg41
Nsg2194
g1
(g2195
g3
Ntp2797
Rp2798
(dp2799
g2199
I00
sg2200
Nsg2201
g2791
sg2208
I00
sg2209
F0.1111111111111111
sg2210
I180
sg2211
I00
sbsbsg92
Nsg40
Nsg2277
g1
(g2
g3
Ntp2800
Rp2801
(dp2802
g7
g17
sg9
I01
sg10
g11
sg12
g15
sg2156
g2157
sg2158
Nsg18
Nsg49
Nsg25
g26
sg2159
g2160
sg28
I01
sg2161
Nsg31
Nsg63
Nsg64
Nsg65
Nsg32
Nsg19
Nsg35
I00
sg2162
Nsg36
I00
sg37
(dp2803
sg2164
Nsg39
I00
sg2165
I00
sg1800
Nsg2166
Nsg2167
F0.5
sg2168
g2169
sg2170
Nsg1888
g1889
sg2171
g1
(g2172
g3
Ntp2804
Rp2805
(dp2806
g2171
I0
sg2176
Nsg2177
F1.0
sg93
g1
(g141
g3
Ntp2807
Rp2808
(dp2809
g56
I2
sg57
Nsg98
g110
(g111
(I0
tp2810
g113
tp2811
Rp2812
(I1
(L3L
L3L
tp2813
g120
I00
S'\x00\x00\x00\x00\x00\x00\xf0\xbf\x00\x00\x00\x00\x00\x00\x00\x00\x00\x00\x00\x00\x00\x00\x00\x00\x00\x00\x00\x00\x00\x00\x00\x00\x00\x00\x00\x00\x00\x00\xf0?\x00\x00\x00\x00\x00\x00\x00\x00\x00\x00\x00\x00\x00\x00\x00\x00\x00\x00\x00\x00\x00\x00\x00\x00\x00\x00\x00\x00\x00\x00\xf0?'
p2814
tp2815
bsg58
g17
sg59
(dp2816
sbsg2188
I00
sg2189
g2190
sg2191
Nsg1797
g2192
sg83
g2193
sg2194
g2747
sbsg40
Nsg2212
g2213
sg77
I01
sg2214
g2215
sg80
Nsg2216
F4.0
sg73
I01
sg2217
Nsg85
VNone
p2817
sg2219
(I1
tp2818
sg89
I0
sg2221
g2222
sg2223
I0
sg2224
I5
sg90
I01
sg92
Nsg2225
g2160
sg2226
I01
sg93
g500
sg2227
I01
sg2228
F2.01
sg50
Nsg1799
Nsg2229
(I0
tp2819
sg75
Nsg74
F1.0
sg41
Nsg2194
Nsbsg93
Nsg2298
g2068
sg2299
Vytick
p2820
sg50
Nsg1888
g1889
sg41
Nsbag1
(g2701
g3
Ntp2821
Rp2822
(dp2823
g7
g17
sg47
F0.5
sg12
g15
sg2113
I01
sg9
I01
sg18
Nsg89
I0
sg49
Nsg2114
F4.0
sg2115
g1889
sg2116
I00
sg1871
F4.0
sg25
g26
sg2117
g2118
sg2073
g1
(g1855
g3
Ntp2824
Rp2825
(dp2826
g7
g17
sg9
I01
sg12
g15
sg18
Nsg1859
g1
(g1860
g3
Ntp2827
Rp2828
(dp2829
g1864
(lp2830
g1866
asg1867
Nsg1868
g1869
sg1870
g1869
sg1871
g2068
sg1873
I400
sg1874
g1869
sbsg49
Nsg25
g26
sg1875
Nsg28
I01
sg31
Nsg63
I0
sg64
I0
sg32
Nsg19
Nsg35
I00
sg36
I00
sg37
(dp2831
sg1877
Nsg39
I00
sg1800
Nsg75
Nsg1799
Nsg1878
Nsg40
Nsg80
Nsg73
I01
sg1879
g2713
sg1881
V
p2832
sg1883
Nsg65
Nsg89
I0
sg1884
Nsg90
I01
sg92
Nsg1885
F1.2
sg93
g570
sg1886
Nsg1887
I00
sg50
Nsg1888
g1889
sg1890
g2715
sg41
Nsbsg28
I01
sg31
Nsg2130
I00
sg32
Nsg19
Nsg2131
I01
sg35
I00
sg36
I00
sg37
(dp2833
sg2133
(I1
I0
tp2834
sg39
I00
sg2135
F2.01
sg1800
g1833
sg2136
I01
sg75
g1349
sg1799
Nsg2137
g2825
sg2138
g1
(g1855
g3
Ntp2835
Rp2836
(dp2837
g7
g17
sg9
I01
sg12
g15
sg18
Nsg1859
g1
(g1860
g3
Ntp2838
Rp2839
(dp2840
g1864
(lp2841
g1866
asg1867
Nsg1868
g1869
sg1870
g1869
sg1871
g2068
sg1873
I400
sg1874
g1869
sbsg49
Nsg25
g26
sg1875
Nsg28
I01
sg31
Nsg63
I0
sg64
I1
sg32
Nsg19
Nsg35
I00
sg36
I00
sg37
(dp2842
sg1877
Nsg39
I00
sg1800
Nsg75
Nsg1799
Nsg1878
Nsg40
Nsg80
Nsg73
I01
sg1879
g2726
sg1881
V
p2843
sg1883
Nsg65
Nsg89
I0
sg1884
Nsg90
I01
sg92
Nsg1885
F1.2
sg93
g597
sg1886
Nsg1887
I00
sg50
Nsg1888
g1889
sg1890
g2728
sg41
Nsbsg80
Nsg2150
I0
sg73
I01
sg65
Nsg2151
F4.0
sg2152
g1
(g2
g3
Ntp2844
Rp2845
(dp2846
g7
g17
sg9
I01
sg10
g11
sg12
g15
sg2156
g2157
sg2158
Nsg18
Nsg49
Nsg25
g26
sg2159
g2160
sg28
I01
sg2161
Nsg31
Nsg63
Nsg64
Nsg65
Nsg32
Nsg19
Nsg35
I00
sg2162
Nsg36
I00
sg37
(dp2847
sg2164
Nsg39
I00
sg2165
I00
sg1800
Nsg2166
Nsg2167
F0.5
sg2168
g2169
sg2170
Nsg1888
g1889
sg2171
g1
(g2172
g3
Ntp2848
Rp2849
(dp2850
g2171
I1
sg2176
Nsg2177
F1.0
sg93
g1
(g141
g3
Ntp2851
Rp2852
(dp2853
g56
I2
sg57
Nsg98
g110
(g111
(I0
tp2854
g113
tp2855
Rp2856
(I1
(L3L
L3L
tp2857
g120
I00
S'\x00\x00\x00\x00\x00\x00\xf0?\x00\x00\x00\x00\x00\x00\x00\x00\x00\x00\x00\x00\x00\x00\x00\x00\x00\x00\x00\x00\x00\x00\x00\x00\x00\x00\x00\x00\x00\x00\xf0?\x00\x00\x00\x00\x00\x00\x00\x00\x00\x00\x00\x00\x00\x00\x00\x00\x00\x00\x00\x00\x00\x00\x00\x00\x00\x00\x00\x00\x00\x00\xf0?'
p2858
tp2859
bsg58
g17
sg59
(dp2860
sbsg2188
I00
sg2189
g2190
sg2191
Nsg1797
g2192
sg83
g2193
sg2194
g2747
sbsg40
Nsg2212
g2213
sg77
I01
sg2214
g2215
sg80
Nsg2216
F4.0
sg73
I01
sg2217
Nsg85
g2755
sg2219
g2756
sg89
I0
sg2221
g2222
sg2223
I0
sg2224
I5
sg90
I01
sg92
Nsg2225
g2160
sg2226
I01
sg93
g500
sg2227
I01
sg2228
F2.01
sg50
Nsg1799
Nsg2229
(I0
tp2861
sg75
Nsg74
F1.0
sg41
Nsg2194
Nsbsg90
I00
sg2231
g1
(g2
g3
Ntp2862
Rp2863
(dp2864
g7
g17
sg9
I01
sg10
g11
sg12
g15
sg2156
g2157
sg2158
Nsg18
Nsg49
Nsg25
g26
sg2159
g2160
sg28
I01
sg2161
Nsg31
Nsg63
g110
(g111
(I0
tp2865
g113
tp2866
Rp2867
(I1
(L2L
tp2868
g120
I00
S'\x00\x00\x00\x00\x00\x00\x00\x00\x00\x00\x00\x00\x00\x00\x00\x00'
p2869
tp2870
bsg64
g110
(g111
(I0
tp2871
g113
tp2872
Rp2873
(I1
(L2L
tp2874
g120
I00
S'\x00\x00\x00\x00\x00\x00\x00\x00\x00\x00\x00\x00\x00\x00\xf0?'
p2875
tp2876
bsg65
Nsg32
Nsg19
Nsg35
I00
sg2162
Nsg36
I00
sg37
(dp2877
sg2164
Nsg39
I00
sg2165
I00
sg1800
Nsg2166
Nsg2167
F0.5
sg2168
g2169
sg2170
Nsg1888
g1889
sg2171
g1
(g2172
g3
Ntp2878
Rp2879
(dp2880
g2171
g2251
sg2176
Nsg2177
Nsg93
g1
(g52
g3
Ntp2881
Rp2882
(dp2883
g56
I1
sg57
Nsg58
g17
sg59
(dp2884
sbsg2188
I00
sg2189
g2190
sg2191
Nsg1797
g2192
sg83
g2193
sg2194
g1
(g2195
g3
Ntp2885
Rp2886
(dp2887
g2199
I00
sg2200
Nsg2201
g110
(g111
(I0
tp2888
g113
tp2889
Rp2890
(I1
(L0L
L2L
tp2891
g120
I00
g2263
tp2892
bsg2208
I00
sg2209
F0.1111111111111111
sg2210
I1
sg2211
I00
sbsbsg40
Nsg2212
g2213
sg77
I01
sg2214
g2215
sg80
Nsg2216
F0.0
sg73
I01
sg2217
g110
(g111
(I0
tp2893
g113
tp2894
Rp2895
(I1
(L2L
L2L
tp2896
g120
I00
S'\x00\x00\x00\x00\x00\x00\x00\x00\x00\x00\x00\x00\x00\x00\x00\x00\x00\x00\x00\x00\x00\x00\xf0?\x00\x00\x00\x00\x00\x00\x00\x00'
p2897
tp2898
bsg85
g2271
sg2219
g2795
sg89
I0
sg2221
g2222
sg2223
I0
sg2224
I5
sg90
I01
sg92
F1.0
sg2225
g2160
sg2226
I00
sg93
g500
sg2227
I00
sg50
Nsg1799
Nsg2229
g2796
sg75
g913
sg74
F0.5
sg41
Nsg2194
g1
(g2195
g3
Ntp2899
Rp2900
(dp2901
g2199
I00
sg2200
Nsg2201
g2895
sg2208
I00
sg2209
F0.1111111111111111
sg2210
I180
sg2211
I00
sbsbsg92
Nsg40
Nsg2277
g1
(g2
g3
Ntp2902
Rp2903
(dp2904
g7
g17
sg9
I01
sg10
g11
sg12
g15
sg2156
g2157
sg2158
Nsg18
Nsg49
Nsg25
g26
sg2159
g2160
sg28
I01
sg2161
Nsg31
Nsg63
Nsg64
Nsg65
Nsg32
Nsg19
Nsg35
I00
sg2162
Nsg36
I00
sg37
(dp2905
sg2164
Nsg39
I00
sg2165
I00
sg1800
Nsg2166
Nsg2167
F0.5
sg2168
g2169
sg2170
Nsg1888
g1889
sg2171
g1
(g2172
g3
Ntp2906
Rp2907
(dp2908
g2171
I0
sg2176
Nsg2177
F1.0
sg93
g1
(g141
g3
Ntp2909
Rp2910
(dp2911
g56
I2
sg57
Nsg98
g110
(g111
(I0
tp2912
g113
tp2913
Rp2914
(I1
(L3L
L3L
tp2915
g120
I00
S'\x00\x00\x00\x00\x00\x00\xf0\xbf\x00\x00\x00\x00\x00\x00\x00\x00\x00\x00\x00\x00\x00\x00\x00\x00\x00\x00\x00\x00\x00\x00\x00\x00\x00\x00\x00\x00\x00\x00\xf0?\x00\x00\x00\x00\x00\x00\x00\x00\x00\x00\x00\x00\x00\x00\x00\x00\x00\x00\x00\x00\x00\x00\x00\x00\x00\x00\x00\x00\x00\x00\xf0?'
p2916
tp2917
bsg58
g17
sg59
(dp2918
sbsg2188
I00
sg2189
g2190
sg2191
Nsg1797
g2192
sg83
g2193
sg2194
g2747
sbsg40
Nsg2212
g2213
sg77
I01
sg2214
g2215
sg80
Nsg2216
F4.0
sg73
I01
sg2217
Nsg85
g2817
sg2219
g2818
sg89
I0
sg2221
g2222
sg2223
I0
sg2224
I5
sg90
I01
sg92
Nsg2225
g2160
sg2226
I01
sg93
g500
sg2227
I01
sg2228
F2.01
sg50
Nsg1799
Nsg2229
(I0
tp2919
sg75
Nsg74
F1.0
sg41
Nsg2194
Nsbsg93
Nsg2298
g2068
sg2299
g2820
sg50
Nsg1888
g1889
sg41
Nsbasg2400
I01
sg1807
g1
(g1808
g3
Ntp2920
Rp2921
sg80
Nsg73
I01
sg2403
I01
sg65
Nsg89
I0
sg2404
I1
sg2405
Nsg90
I00
sg92
Nsg2406
g2675
sg93
Nsg2408
Vleft
p2922
sg50
Nsg1799
Nsg2224
I15
sg2410
(lp2923
g1
(g2701
g3
Ntp2924
Rp2925
(dp2926
g7
g17
sg47
F0.5
sg12
g15
sg2113
I01
sg9
I01
sg18
Nsg89
I0
sg49
Nsg2114
F4.0
sg2115
g1889
sg2116
I00
sg1871
F2.0
sg25
g26
sg2117
g2118
sg2073
g1
(g1855
g3
Ntp2927
Rp2928
(dp2929
g7
g17
sg9
I01
sg12
g15
sg18
Nsg1859
g1
(g1860
g3
Ntp2930
Rp2931
(dp2932
g1864
(lp2933
g1866
asg1867
Nsg1868
g1869
sg1870
g1869
sg1871
g2068
sg1873
I400
sg1874
g1869
sbsg49
Nsg25
g26
sg1875
Nsg28
I01
sg31
Nsg63
I0
sg64
I0
sg32
Nsg19
Nsg35
I00
sg36
I00
sg37
(dp2934
sg1877
Nsg39
I00
sg1800
Nsg75
Nsg1799
Nsg1878
Nsg40
Nsg80
Nsg73
I01
sg1879
g2713
sg1881
V
p2935
sg1883
Nsg65
Nsg89
I0
sg1884
Nsg90
I01
sg92
Nsg1885
F1.2
sg93
g579
sg1886
Nsg1887
I00
sg50
Nsg1888
g1889
sg1890
g2715
sg41
Nsbsg28
I01
sg31
Nsg2130
I00
sg32
Nsg19
Nsg2131
I01
sg35
I00
sg36
I00
sg37
(dp2936
sg2133
(I1
I0
tp2937
sg39
I00
sg2135
I2
sg1800
g1833
sg2136
I01
sg75
g756
sg1799
Nsg2137
g2928
sg2138
g1
(g1855
g3
Ntp2938
Rp2939
(dp2940
g7
g17
sg9
I01
sg12
g15
sg18
Nsg1859
g1
(g1860
g3
Ntp2941
Rp2942
(dp2943
g1864
(lp2944
g1866
asg1867
Nsg1868
g1869
sg1870
g1869
sg1871
g2068
sg1873
I400
sg1874
g1869
sbsg49
Nsg25
g26
sg1875
Nsg28
I01
sg31
Nsg63
I0
sg64
I1
sg32
Nsg19
Nsg35
I00
sg36
I00
sg37
(dp2945
sg1877
Nsg39
I00
sg1800
Nsg75
Nsg1799
Nsg1878
Nsg40
Nsg80
Nsg73
I01
sg1879
g2726
sg1881
V
p2946
sg1883
Nsg65
Nsg89
I0
sg1884
Nsg90
I01
sg92
Nsg1885
F1.2
sg93
g588
sg1886
Nsg1887
I00
sg50
Nsg1888
g1889
sg1890
g2728
sg41
Nsbsg80
Nsg2150
I0
sg73
I01
sg65
Nsg2151
F4.0
sg2152
g1
(g2
g3
Ntp2947
Rp2948
(dp2949
g7
g17
sg9
I01
sg10
g11
sg12
g15
sg2156
g2157
sg2158
Nsg18
Nsg49
Nsg25
g26
sg2159
g2160
sg28
I01
sg2161
Nsg31
Nsg63
Nsg64
Nsg65
Nsg32
Nsg19
Nsg35
I00
sg2162
Nsg36
I00
sg37
(dp2950
sg2164
Nsg39
I00
sg2165
I00
sg1800
Nsg2166
Nsg2167
F0.5
sg2168
g2169
sg2170
Nsg1888
g1889
sg2171
g1
(g2172
g3
Ntp2951
Rp2952
(dp2953
g2171
I1
sg2176
Nsg2177
F1.0
sg93
g1
(g141
g3
Ntp2954
Rp2955
(dp2956
g56
I2
sg57
Nsg98
g110
(g111
(I0
tp2957
g113
tp2958
Rp2959
(I1
(L3L
L3L
tp2960
g120
I00
S'\x00\x00\x00\x00\x00\x00\xf0?\x00\x00\x00\x00\x00\x00\x00\x00\x00\x00\x00\x00\x00\x00\x00\x00\x00\x00\x00\x00\x00\x00\x00\x00\x00\x00\x00\x00\x00\x00\xf0?\x00\x00\x00\x00\x00\x00\x00\x00\x00\x00\x00\x00\x00\x00\x00\x00\x00\x00\x00\x00\x00\x00\x00\x00\x00\x00\x00\x00\x00\x00\xf0?'
p2961
tp2962
bsg58
g17
sg59
(dp2963
sbsg2188
I00
sg2189
g2190
sg2191
Nsg1797
g2192
sg83
g2193
sg2194
g2747
sbsg40
Nsg2212
g2213
sg77
I01
sg2214
g2215
sg80
Nsg2216
F2.0
sg73
I01
sg2217
Nsg85
g2755
sg2219
g2756
sg89
I0
sg2221
g2222
sg2223
I0
sg2224
I5
sg90
I01
sg92
Nsg2225
g2160
sg2226
I01
sg93
g500
sg2227
I01
sg2228
I2
sg50
Nsg1799
Nsg2229
(I0
tp2964
sg75
Nsg74
F1.0
sg41
Nsg2194
Nsbsg90
I00
sg2231
g1
(g2
g3
Ntp2965
Rp2966
(dp2967
g7
g17
sg9
I01
sg10
g11
sg12
g15
sg2156
g2157
sg2158
Nsg18
Nsg49
Nsg25
g26
sg2159
g2160
sg28
I01
sg2161
Nsg31
Nsg63
g110
(g111
(I0
tp2968
g113
tp2969
Rp2970
(I1
(L2L
tp2971
g120
I00
S'\x00\x00\x00\x00\x00\x00\x00\x00\x00\x00\x00\x00\x00\x00\x00\x00'
p2972
tp2973
bsg64
g110
(g111
(I0
tp2974
g113
tp2975
Rp2976
(I1
(L2L
tp2977
g120
I00
S'\x00\x00\x00\x00\x00\x00\x00\x00\x00\x00\x00\x00\x00\x00\xf0?'
p2978
tp2979
bsg65
Nsg32
Nsg19
Nsg35
I00
sg2162
Nsg36
I00
sg37
(dp2980
sg2164
Nsg39
I00
sg2165
I00
sg1800
Nsg2166
Nsg2167
F0.5
sg2168
g2169
sg2170
Nsg1888
g1889
sg2171
g1
(g2172
g3
Ntp2981
Rp2982
(dp2983
g2171
g2251
sg2176
Nsg2177
Nsg93
g1
(g52
g3
Ntp2984
Rp2985
(dp2986
g56
I1
sg57
Nsg58
g17
sg59
(dp2987
sbsg2188
I00
sg2189
g2190
sg2191
Nsg1797
g2192
sg83
g2193
sg2194
g1
(g2195
g3
Ntp2988
Rp2989
(dp2990
g2199
I00
sg2200
Nsg2201
g110
(g111
(I0
tp2991
g113
tp2992
Rp2993
(I1
(L0L
L2L
tp2994
g120
I00
g2263
tp2995
bsg2208
I00
sg2209
F0.1111111111111111
sg2210
I1
sg2211
I00
sbsbsg40
Nsg2212
g2213
sg77
I01
sg2214
g2215
sg80
Nsg2216
F0.0
sg73
I01
sg2217
g110
(g111
(I0
tp2996
g113
tp2997
Rp2998
(I1
(L2L
L2L
tp2999
g120
I00
S'\x00\x00\x00\x00\x00\x00\x00\x00\x00\x00\x00\x00\x00\x00\x00\x00\x00\x00\x00\x00\x00\x00\xf0?\x00\x00\x00\x00\x00\x00\x00\x00'
p3000
tp3001
bsg85
g2271
sg2219
g2795
sg89
I0
sg2221
g2222
sg2223
I0
sg2224
I5
sg90
I01
sg92
F1.0
sg2225
g2160
sg2226
I00
sg93
g500
sg2227
I00
sg50
Nsg1799
Nsg2229
g2796
sg75
g1489
sg74
F0.5
sg41
Nsg2194
g1
(g2195
g3
Ntp3002
Rp3003
(dp3004
g2199
I00
sg2200
Nsg2201
g2998
sg2208
I00
sg2209
F0.1111111111111111
sg2210
I180
sg2211
I00
sbsbsg92
Nsg40
Nsg2277
g1
(g2
g3
Ntp3005
Rp3006
(dp3007
g7
g17
sg9
I01
sg10
g11
sg12
g15
sg2156
g2157
sg2158
Nsg18
Nsg49
Nsg25
g26
sg2159
g2160
sg28
I01
sg2161
Nsg31
Nsg63
Nsg64
Nsg65
Nsg32
Nsg19
Nsg35
I00
sg2162
Nsg36
I00
sg37
(dp3008
sg2164
Nsg39
I00
sg2165
I00
sg1800
Nsg2166
Nsg2167
F0.5
sg2168
g2169
sg2170
Nsg1888
g1889
sg2171
g1
(g2172
g3
Ntp3009
Rp3010
(dp3011
g2171
I0
sg2176
Nsg2177
F1.0
sg93
g1
(g141
g3
Ntp3012
Rp3013
(dp3014
g56
I2
sg57
Nsg98
g110
(g111
(I0
tp3015
g113
tp3016
Rp3017
(I1
(L3L
L3L
tp3018
g120
I00
S'\x00\x00\x00\x00\x00\x00\xf0\xbf\x00\x00\x00\x00\x00\x00\x00\x00\x00\x00\x00\x00\x00\x00\x00\x00\x00\x00\x00\x00\x00\x00\x00\x00\x00\x00\x00\x00\x00\x00\xf0?\x00\x00\x00\x00\x00\x00\x00\x00\x00\x00\x00\x00\x00\x00\x00\x00\x00\x00\x00\x00\x00\x00\x00\x00\x00\x00\x00\x00\x00\x00\xf0?'
p3019
tp3020
bsg58
g17
sg59
(dp3021
sbsg2188
I00
sg2189
g2190
sg2191
Nsg1797
g2192
sg83
g2193
sg2194
g2747
sbsg40
Nsg2212
g2213
sg77
I01
sg2214
g2215
sg80
Nsg2216
F2.0
sg73
I01
sg2217
Nsg85
g2817
sg2219
g2818
sg89
I0
sg2221
g2222
sg2223
I0
sg2224
I5
sg90
I01
sg92
Nsg2225
g2160
sg2226
I01
sg93
g500
sg2227
I01
sg2228
I2
sg50
Nsg1799
Nsg2229
(I0
tp3022
sg75
Nsg74
F1.0
sg41
Nsg2194
Nsbsg93
Nsg2298
g2068
sg2299
g2820
sg50
Nsg1888
g1889
sg41
Nsbag1
(g2701
g3
Ntp3023
Rp3024
(dp3025
g7
g17
sg47
F0.5
sg12
g15
sg2113
I01
sg9
I01
sg18
Nsg89
I0
sg49
Nsg2114
F4.0
sg2115
g1889
sg2116
I00
sg1871
F2.0
sg25
g26
sg2117
g2118
sg2073
g1
(g1855
g3
Ntp3026
Rp3027
(dp3028
g7
g17
sg9
I01
sg12
g15
sg18
Nsg1859
g1
(g1860
g3
Ntp3029
Rp3030
(dp3031
g1864
(lp3032
g1866
asg1867
Nsg1868
g1869
sg1870
g1869
sg1871
g2068
sg1873
I400
sg1874
g1869
sbsg49
Nsg25
g26
sg1875
Nsg28
I01
sg31
Nsg63
I0
sg64
I0
sg32
Nsg19
Nsg35
I00
sg36
I00
sg37
(dp3033
sg1877
Nsg39
I00
sg1800
Nsg75
Nsg1799
Nsg1878
Nsg40
Nsg80
Nsg73
I01
sg1879
g2713
sg1881
V
p3034
sg1883
Nsg65
Nsg89
I0
sg1884
Nsg90
I01
sg92
Nsg1885
F1.2
sg93
g615
sg1886
Nsg1887
I00
sg50
Nsg1888
g1889
sg1890
g2715
sg41
Nsbsg28
I01
sg31
Nsg2130
I00
sg32
Nsg19
Nsg2131
I01
sg35
I00
sg36
I00
sg37
(dp3035
sg2133
(I1
I0
tp3036
sg39
I00
sg2135
I2
sg1800
g1833
sg2136
I01
sg75
g1419
sg1799
Nsg2137
g3027
sg2138
g1
(g1855
g3
Ntp3037
Rp3038
(dp3039
g7
g17
sg9
I01
sg12
g15
sg18
Nsg1859
g1
(g1860
g3
Ntp3040
Rp3041
(dp3042
g1864
(lp3043
g1866
asg1867
Nsg1868
g1869
sg1870
g1869
sg1871
g2068
sg1873
I400
sg1874
g1869
sbsg49
Nsg25
g26
sg1875
Nsg28
I01
sg31
Nsg63
I0
sg64
I1
sg32
Nsg19
Nsg35
I00
sg36
I00
sg37
(dp3044
sg1877
Nsg39
I00
sg1800
Nsg75
Nsg1799
Nsg1878
Nsg40
Nsg80
Nsg73
I01
sg1879
g2726
sg1881
V
p3045
sg1883
Nsg65
Nsg89
I0
sg1884
Nsg90
I01
sg92
Nsg1885
F1.2
sg93
g633
sg1886
Nsg1887
I00
sg50
Nsg1888
g1889
sg1890
g2728
sg41
Nsbsg80
Nsg2150
I0
sg73
I01
sg65
Nsg2151
F4.0
sg2152
g1
(g2
g3
Ntp3046
Rp3047
(dp3048
g7
g17
sg9
I01
sg10
g11
sg12
g15
sg2156
g2157
sg2158
Nsg18
Nsg49
Nsg25
g26
sg2159
g2160
sg28
I01
sg2161
Nsg31
Nsg63
Nsg64
Nsg65
Nsg32
Nsg19
Nsg35
I00
sg2162
Nsg36
I00
sg37
(dp3049
sg2164
Nsg39
I00
sg2165
I00
sg1800
Nsg2166
Nsg2167
F0.5
sg2168
g2169
sg2170
Nsg1888
g1889
sg2171
g1
(g2172
g3
Ntp3050
Rp3051
(dp3052
g2171
I1
sg2176
Nsg2177
F1.0
sg93
g1
(g141
g3
Ntp3053
Rp3054
(dp3055
g56
I2
sg57
Nsg98
g110
(g111
(I0
tp3056
g113
tp3057
Rp3058
(I1
(L3L
L3L
tp3059
g120
I00
S'\x00\x00\x00\x00\x00\x00\xf0?\x00\x00\x00\x00\x00\x00\x00\x00\x00\x00\x00\x00\x00\x00\x00\x00\x00\x00\x00\x00\x00\x00\x00\x00\x00\x00\x00\x00\x00\x00\xf0?\x00\x00\x00\x00\x00\x00\x00\x00\x00\x00\x00\x00\x00\x00\x00\x00\x00\x00\x00\x00\x00\x00\x00\x00\x00\x00\x00\x00\x00\x00\xf0?'
p3060
tp3061
bsg58
g17
sg59
(dp3062
sbsg2188
I00
sg2189
g2190
sg2191
Nsg1797
g2192
sg83
g2193
sg2194
g2747
sbsg40
Nsg2212
g2213
sg77
I01
sg2214
g2215
sg80
Nsg2216
F2.0
sg73
I01
sg2217
Nsg85
g2755
sg2219
g2756
sg89
I0
sg2221
g2222
sg2223
I0
sg2224
I5
sg90
I01
sg92
Nsg2225
g2160
sg2226
I01
sg93
g500
sg2227
I01
sg2228
I2
sg50
Nsg1799
Nsg2229
(I0
tp3063
sg75
Nsg74
F1.0
sg41
Nsg2194
Nsbsg90
I00
sg2231
g1
(g2
g3
Ntp3064
Rp3065
(dp3066
g7
g17
sg9
I01
sg10
g11
sg12
g15
sg2156
g2157
sg2158
Nsg18
Nsg49
Nsg25
g26
sg2159
g2160
sg28
I01
sg2161
Nsg31
Nsg63
g110
(g111
(I0
tp3067
g113
tp3068
Rp3069
(I1
(L2L
tp3070
g120
I00
S'\x00\x00\x00\x00\x00\x00\x00\x00\x00\x00\x00\x00\x00\x00\x00\x00'
p3071
tp3072
bsg64
g110
(g111
(I0
tp3073
g113
tp3074
Rp3075
(I1
(L2L
tp3076
g120
I00
S'\x00\x00\x00\x00\x00\x00\x00\x00\x00\x00\x00\x00\x00\x00\xf0?'
p3077
tp3078
bsg65
Nsg32
Nsg19
Nsg35
I00
sg2162
Nsg36
I00
sg37
(dp3079
sg2164
Nsg39
I00
sg2165
I00
sg1800
Nsg2166
Nsg2167
F0.5
sg2168
g2169
sg2170
Nsg1888
g1889
sg2171
g1
(g2172
g3
Ntp3080
Rp3081
(dp3082
g2171
g2251
sg2176
Nsg2177
Nsg93
g1
(g52
g3
Ntp3083
Rp3084
(dp3085
g56
I1
sg57
Nsg58
g17
sg59
(dp3086
sbsg2188
I00
sg2189
g2190
sg2191
Nsg1797
g2192
sg83
g2193
sg2194
g1
(g2195
g3
Ntp3087
Rp3088
(dp3089
g2199
I00
sg2200
Nsg2201
g110
(g111
(I0
tp3090
g113
tp3091
Rp3092
(I1
(L0L
L2L
tp3093
g120
I00
g2263
tp3094
bsg2208
I00
sg2209
F0.1111111111111111
sg2210
I1
sg2211
I00
sbsbsg40
Nsg2212
g2213
sg77
I01
sg2214
g2215
sg80
Nsg2216
F0.0
sg73
I01
sg2217
g110
(g111
(I0
tp3095
g113
tp3096
Rp3097
(I1
(L2L
L2L
tp3098
g120
I00
S'\x00\x00\x00\x00\x00\x00\x00\x00\x00\x00\x00\x00\x00\x00\x00\x00\x00\x00\x00\x00\x00\x00\xf0?\x00\x00\x00\x00\x00\x00\x00\x00'
p3099
tp3100
bsg85
g2271
sg2219
g2795
sg89
I0
sg2221
g2222
sg2223
I0
sg2224
I5
sg90
I01
sg92
F1.0
sg2225
g2160
sg2226
I00
sg93
g500
sg2227
I00
sg50
Nsg1799
Nsg2229
g2796
sg75
g1053
sg74
F0.5
sg41
Nsg2194
g1
(g2195
g3
Ntp3101
Rp3102
(dp3103
g2199
I00
sg2200
Nsg2201
g3097
sg2208
I00
sg2209
F0.1111111111111111
sg2210
I180
sg2211
I00
sbsbsg92
Nsg40
Nsg2277
g1
(g2
g3
Ntp3104
Rp3105
(dp3106
g7
g17
sg9
I01
sg10
g11
sg12
g15
sg2156
g2157
sg2158
Nsg18
Nsg49
Nsg25
g26
sg2159
g2160
sg28
I01
sg2161
Nsg31
Nsg63
Nsg64
Nsg65
Nsg32
Nsg19
Nsg35
I00
sg2162
Nsg36
I00
sg37
(dp3107
sg2164
Nsg39
I00
sg2165
I00
sg1800
Nsg2166
Nsg2167
F0.5
sg2168
g2169
sg2170
Nsg1888
g1889
sg2171
g1
(g2172
g3
Ntp3108
Rp3109
(dp3110
g2171
I0
sg2176
Nsg2177
F1.0
sg93
g1
(g141
g3
Ntp3111
Rp3112
(dp3113
g56
I2
sg57
Nsg98
g110
(g111
(I0
tp3114
g113
tp3115
Rp3116
(I1
(L3L
L3L
tp3117
g120
I00
S'\x00\x00\x00\x00\x00\x00\xf0\xbf\x00\x00\x00\x00\x00\x00\x00\x00\x00\x00\x00\x00\x00\x00\x00\x00\x00\x00\x00\x00\x00\x00\x00\x00\x00\x00\x00\x00\x00\x00\xf0?\x00\x00\x00\x00\x00\x00\x00\x00\x00\x00\x00\x00\x00\x00\x00\x00\x00\x00\x00\x00\x00\x00\x00\x00\x00\x00\x00\x00\x00\x00\xf0?'
p3118
tp3119
bsg58
g17
sg59
(dp3120
sbsg2188
I00
sg2189
g2190
sg2191
Nsg1797
g2192
sg83
g2193
sg2194
g2747
sbsg40
Nsg2212
g2213
sg77
I01
sg2214
g2215
sg80
Nsg2216
F2.0
sg73
I01
sg2217
Nsg85
g2817
sg2219
g2818
sg89
I0
sg2221
g2222
sg2223
I0
sg2224
I5
sg90
I01
sg92
Nsg2225
g2160
sg2226
I01
sg93
g500
sg2227
I01
sg2228
I2
sg50
Nsg1799
Nsg2229
(I0
tp3121
sg75
Nsg74
F1.0
sg41
Nsg2194
Nsbsg93
Nsg2298
g2068
sg2299
g2820
sg50
Nsg1888
g1889
sg41
Nsbasg41
Nsg2610
(dp3122
sg2612
I01
sbsS'_axisbelow'
p3123
I00
sg9
I01
sS'lines'
p3124
(lp3125
g5
asS'_ycid'
p3126
I1
sS'spines'
p3127
(dp3128
Vtop
p3129
g1
(cmatplotlib.spines
Spine
p3130
g3
Ntp3131
Rp3132
(dp3133
g7
g17
sg2059
I00
sg48
I01
sg12
g15
sS'_bounds'
p3134
Nsg9
I01
sg18
Nsg49
Nsg25
g26
sg50
Nsg28
I01
sg2038
g2019
sg51
g1
(g52
g3
Ntp3135
Rp3136
(dp3137
g56
I1
sg57
Nsg58
g17
sg59
(dp3138
sbsg61
(F0.0
F0.0
F0.0
F1.0
tp3139
sg31
Nsg65
Nsg32
Nsg19
Nsg35
I00
sg36
I00
sg37
(dp3140
sg1987
(Voutward
p3141
F0.0
tp3142
sg39
I00
sg72
Nsg73
I01
sg74
F1.0
sS'_patch_type'
p3143
Vline
p3144
sg40
Nsg77
I01
sg78
Vnone
p3145
sg80
Nsg81
g1950
sg83
g84
sS'_patch_transform'
p3146
g1
(g52
g3
Ntp3147
Rp3148
(dp3149
g56
I1
sg57
Nsg58
g17
sg59
(dp3150
sbsg85
g86
sg87
g1889
sg89
I0
sS'_spine_transform'
p3151
(Videntity
p3152
g1
(g52
g3
Ntp3153
Rp3154
(dp3155
g56
I1
sg57
Nsg58
g17
sg59
(dp3156
sbtp3157
sg90
I01
sg92
NsS'spine_type'
p3158
g3129
sg93
g168
sg75
Nsg2228
F2.5
sg1797
Vprojecting
p3159
sg1799
Nsg1800
g1833
sg41
Nsg2194
g1
(g2195
g3
Ntp3160
Rp3161
(dp3162
g2199
I00
sg2200
Nsg2201
g110
(g111
(I0
tp3163
g113
tp3164
Rp3165
(I1
(L2L
L2L
tp3166
g120
I00
S'\x00\x00\x00\x00\x00\x00*@\x00\x00\x00\x00\x00\x00\xf0?\x00\x00\x00\x00\x00\x00*@\x00\x00\x00\x00\x00\x00\xf0?'
p3167
tp3168
bsg2208
I00
sg2209
F0.1111111111111111
sg2210
I1
sg2211
I00
sbsbsVright
p3169
g1
(g3130
g3
Ntp3170
Rp3171
(dp3172
g7
g17
sg2059
I00
sg48
I01
sg12
g15
sg3134
Nsg9
I01
sg18
Nsg49
Nsg25
g26
sg50
Nsg28
I01
sg2038
g2651
sg51
g1
(g52
g3
Ntp3173
Rp3174
(dp3175
g56
I1
sg57
Nsg58
g17
sg59
(dp3176
sbsg61
(F0.0
F0.0
F0.0
F1.0
tp3177
sg31
Nsg65
Nsg32
Nsg19
Nsg35
I00
sg36
I00
sg37
(dp3178
sg1987
g3142
sg39
I00
sg72
Nsg73
I01
sg74
F1.0
sg3143
g3144
sg40
Nsg77
I01
sg78
g3145
sg80
Nsg81
g1950
sg83
g84
sg3146
g1
(g52
g3
Ntp3179
Rp3180
(dp3181
g56
I1
sg57
Nsg58
g17
sg59
(dp3182
sbsg85
g86
sg87
g1889
sg89
I0
sg3151
(g3152
g1
(g52
g3
Ntp3183
Rp3184
(dp3185
g56
I1
sg57
Nsg58
g17
sg59
(dp3186
sbtp3187
sg90
I01
sg92
Nsg3158
g3169
sg93
g500
sg75
Nsg2228
F2.5
sg1797
g3159
sg1799
Nsg1800
g1833
sg41
Nsg2194
g1
(g2195
g3
Ntp3188
Rp3189
(dp3190
g2199
I00
sg2200
Nsg2201
g110
(g111
(I0
tp3191
g113
tp3192
Rp3193
(I1
(L2L
L2L
tp3194
g120
I00
S'\x00\x00\x00\x00\x00\x00\xf0?\x00\x00\x00\x00\x00\x00*@\x00\x00\x00\x00\x00\x00\xf0?\x00\x00\x00\x00\x00\x00*@'
p3195
tp3196
bsg2208
I00
sg2209
F0.1111111111111111
sg2210
I1
sg2211
I00
sbsbsVbottom
p3197
g1
(g3130
g3
Ntp3198
Rp3199
(dp3200
g7
g17
sg2059
I00
sg48
I01
sg12
g15
sg3134
Nsg9
I01
sg18
Nsg49
Nsg25
g26
sg50
Nsg28
I01
sg2038
g2019
sg51
g1
(g52
g3
Ntp3201
Rp3202
(dp3203
g56
I1
sg57
Nsg58
g17
sg59
(dp3204
sbsg61
(F0.0
F0.0
F0.0
F1.0
tp3205
sg31
Nsg65
Nsg32
Nsg19
Nsg35
I00
sg36
I00
sg37
(dp3206
sg1987
g3142
sg39
I00
sg72
Nsg73
I01
sg74
F1.0
sg3143
g3144
sg40
Nsg77
I01
sg78
g3145
sg80
Nsg81
g1950
sg83
g84
sg3146
g1
(g52
g3
Ntp3207
Rp3208
(dp3209
g56
I1
sg57
Nsg58
g17
sg59
(dp3210
sbsg85
g86
sg87
g1889
sg89
I0
sg3151
(g3152
g1
(g52
g3
Ntp3211
Rp3212
(dp3213
g56
I1
sg57
Nsg58
g17
sg59
(dp3214
sbtp3215
sg90
I01
sg92
Nsg3158
g3197
sg93
g168
sg75
Nsg2228
F2.5
sg1797
g3159
sg1799
Nsg1800
g1833
sg41
Nsg2194
g1
(g2195
g3
Ntp3216
Rp3217
(dp3218
g2199
I00
sg2200
Nsg2201
g110
(g111
(I0
tp3219
g113
tp3220
Rp3221
(I1
(L2L
L2L
tp3222
g120
I00
S'\x00\x00\x00\x00\x00\x00*@\x00\x00\x00\x00\x00\x00\x00\x00\x00\x00\x00\x00\x00\x00*@\x00\x00\x00\x00\x00\x00\x00\x00'
p3223
tp3224
bsg2208
I00
sg2209
F0.1111111111111111
sg2210
I1
sg2211
I00
sbsbsVleft
p3225
g1
(g3130
g3
Ntp3226
Rp3227
(dp3228
g7
g17
sg2059
I00
sg48
I01
sg12
g15
sg3134
Nsg9
I01
sg18
Nsg49
Nsg25
g26
sg50
Nsg28
I01
sg2038
g2651
sg51
g1
(g52
g3
Ntp3229
Rp3230
(dp3231
g56
I1
sg57
Nsg58
g17
sg59
(dp3232
sbsg61
(F0.0
F0.0
F0.0
F1.0
tp3233
sg31
Nsg65
Nsg32
Nsg19
Nsg35
I00
sg36
I00
sg37
(dp3234
sg1987
g3142
sg39
I00
sg72
Nsg73
I01
sg74
F1.0
sg3143
g3144
sg40
Nsg77
I01
sg78
g3145
sg80
Nsg81
g1950
sg83
g84
sg3146
g1
(g52
g3
Ntp3235
Rp3236
(dp3237
g56
I1
sg57
Nsg58
g17
sg59
(dp3238
sbsg85
g86
sg87
g1889
sg89
I0
sg3151
(g3152
g1
(g52
g3
Ntp3239
Rp3240
(dp3241
g56
I1
sg57
Nsg58
g17
sg59
(dp3242
sbtp3243
sg90
I01
sg92
Nsg3158
g3225
sg93
g500
sg75
Nsg2228
F2.5
sg1797
g3159
sg1799
Nsg1800
g1833
sg41
Nsg2194
g1
(g2195
g3
Ntp3244
Rp3245
(dp3246
g2199
I00
sg2200
Nsg2201
g110
(g111
(I0
tp3247
g113
tp3248
Rp3249
(I1
(L2L
L2L
tp3250
g120
I00
S'\x00\x00\x00\x00\x00\x00\x00\x00\x00\x00\x00\x00\x00\x00*@\x00\x00\x00\x00\x00\x00\x00\x00\x00\x00\x00\x00\x00\x00*@'
p3251
tp3252
bsg2208
I00
sg2209
F0.1111111111111111
sg2210
I1
sg2211
I00
sbsbssg50
Nsg1799
NsS'_axisbg'
p3253
g88
sbtp3254
tp3255
asS'_ind'
p3256
I1
sS'_pos'
p3257
I0
sbsg93
Nsg3124
(lp3258
sg1942
g45
sS'subplotpars'
p3259
g1
(cmatplotlib.figure
SubplotParams
p3260
g3
Ntp3261
Rp3262
(dp3263
g1968
F0.9
sg1970
F0.1
sg1971
F0.9
sg1972
F0.2
sS'validate'
p3264
I01
sg1974
F0.2
sg1976
F0.125
sbsg50
Nsg1799
NsS'bbox_inches'
p3265
g107
sS'transFigure'
p3266
g96
sS'_dpi'
p3267
F80.0
sbsg2156
g2157
sg2158
Nsg18
Nsg49
Nsg25
g26
sg2159
g2160
sg28
I01
sg2161
Nsg31
Nsg63
g110
(g111
(I0
tp3268
g113
tp3269
Rp3270
(I1
(L4L
tp3271
g120
I00
S'\x00\x00\x00\x00\x00\x00\x10@\x00\x00\x00\x00\x00\x00\x08@\x00\x00\x00\x00\x00\x00\x00@\x00\x00\x00\x00\x00\x00\xf0?'
p3272
tp3273
bsg64
g110
(g111
(I0
tp3274
g113
tp3275
Rp3276
(I1
(L4L
tp3277
g120
I00
S'\x00\x00\x00\x00\x00\x00\xf0?\x00\x00\x00\x00\x00\x00\x00@\x00\x00\x00\x00\x00\x00\x08@\x00\x00\x00\x00\x00\x00\x10@'
p3278
tp3279
bsg65
Nsg32
Nsg19
Nsg35
I00
sg2162
Nsg36
I00
sg37
(dp3280
sg2164
Nsg2224
I5
sg39
I00
sg2165
I00
sg1800
g1833
sg2166
Nsg2167
F0.5
sg2168
g2169
sg2170
Nsg1888
Vb
p3281
sg2171
g1
(g2172
g3
Ntp3282
Rp3283
(dp3284
g2171
g2251
sg2176
Nsg2177
Nsg93
g1
(g52
g3
Ntp3285
Rp3286
(dp3287
g56
I1
sg57
Nsg58
g17
sg59
(dp3288
sbsg2188
I00
sg2189
g2190
sg2191
Nsg1797
g2192
sg83
g2193
sg2194
g1
(g2195
g3
Ntp3289
Rp3290
(dp3291
g2199
I00
sg2200
Nsg2201
g110
(g111
(I0
tp3292
g113
tp3293
Rp3294
(I1
(L0L
L2L
tp3295
g120
I00
g2263
tp3296
bsg2208
I00
sg2209
F0.1111111111111111
sg2210
I1
sg2211
I00
sbsbsg40
Nsg2212
g2213
sg77
I01
sg2214
g2215
sg80
Nsg2216
F6.0
sg73
I01
sg2217
g110
(g111
(I0
tp3297
g113
tp3298
Rp3299
(I1
(L4L
L2L
tp3300
g120
I00
S'\x00\x00\x00\x00\x00\x00\xf0?\x00\x00\x00\x00\x00\x00\x10@\x00\x00\x00\x00\x00\x00\x00@\x00\x00\x00\x00\x00\x00\x08@\x00\x00\x00\x00\x00\x00\x08@\x00\x00\x00\x00\x00\x00\x00@\x00\x00\x00\x00\x00\x00\x10@\x00\x00\x00\x00\x00\x00\xf0?'
p3301
tp3302
bsg85
V-
p3303
sg2219
g110
(g111
(I0
tp3304
g113
tp3305
Rp3306
(I1
(L4L
tp3307
g117
(S'i4'
p3308
I0
I1
tp3309
Rp3310
(I3
S'<'
p3311
NNNI-1
I-1
I0
tp3312
bI00
S'\x01\x00\x00\x00\x02\x00\x00\x00\x03\x00\x00\x00\x04\x00\x00\x00'
p3313
tp3314
bsg89
I0
sg2221
g2222
sg2223
I0
sg1844
I2
sg90
I01
sg92
Nsg2225
g2160
sg2226
I00
sg93
g503
sg3126
I2
sg2227
I00
sg50
Nsg1799
Nsg2229
g110
(g111
(I0
tp3315
g113
tp3316
Rp3317
(I1
(L4L
tp3318
g3310
I00
S'\x04\x00\x00\x00\x03\x00\x00\x00\x02\x00\x00\x00\x01\x00\x00\x00'
p3319
tp3320
bsg75
g1629
sg74
F1.0
sg41
Nsg2194
g1
(g2195
g3
Ntp3321
Rp3322
(dp3323
g2199
I00
sg2200
Nsg2201
g3299
sg2208
I00
sg2209
F0.1111111111111111
sg2210
I1
sg2211
I00
sbsba.